---
triple:          'arm64-apple-darwin'
binary-path:     main
relocations:
  - { offsetInCU: 0x3F, offset: 0x3F, size: 0x8, addend: 0x0, symName: _frame, symObjAddr: 0x4FB8, symBinAddr: 0x10000C000, symSize: 0x0 }
  - { offsetInCU: 0xA0, offset: 0xA0, size: 0x8, addend: 0x0, symName: _game, symObjAddr: 0x38330, symBinAddr: 0x10000C050, symSize: 0x0 }
  - { offsetInCU: 0x8BBB, offset: 0x8BBB, size: 0x8, addend: 0x0, symName: __ZNSt3__14endlB8ue170006IcNS_11char_traitsIcEEEERNS_13basic_ostreamIT_T0_EES7_, symObjAddr: 0x554, symBinAddr: 0x10000123C, symSize: 0x58 }
  - { offsetInCU: 0x8BFB, offset: 0x8BFB, size: 0x8, addend: 0x0, symName: __ZNSt3__112__to_addressB8ue170006INS_6vectorIcNS_9allocatorIcEEEEEEPT_S6_, symObjAddr: 0x1360, symBinAddr: 0x100002048, symSize: 0x14 }
  - { offsetInCU: 0x8C30, offset: 0x8C30, size: 0x8, addend: 0x0, symName: __ZNSt3__13maxB8ue170006ImEERKT_S3_S3_, symObjAddr: 0x19F8, symBinAddr: 0x1000026E0, symSize: 0x2C }
  - { offsetInCU: 0x8C73, offset: 0x8C73, size: 0x8, addend: 0x0, symName: __ZNSt3__13minB8ue170006ImEERKT_S3_S3_, symObjAddr: 0x1A24, symBinAddr: 0x10000270C, symSize: 0x2C }
  - { offsetInCU: 0x8EB7, offset: 0x8EB7, size: 0x8, addend: 0x0, symName: __ZNSt3__13minB8ue170006ImNS_6__lessIvvEEEERKT_S5_S5_T0_, symObjAddr: 0x1AB0, symBinAddr: 0x100002798, symSize: 0x54 }
  - { offsetInCU: 0x8F56, offset: 0x8F56, size: 0x8, addend: 0x0, symName: __ZNSt3__120__throw_length_errorB8ue170006EPKc, symObjAddr: 0x1B90, symBinAddr: 0x100002878, symSize: 0x64 }
  - { offsetInCU: 0x8F80, offset: 0x8F80, size: 0x8, addend: 0x0, symName: __ZNSt3__13maxB8ue170006ImNS_6__lessIvvEEEERKT_S5_S5_T0_, symObjAddr: 0x1CD4, symBinAddr: 0x1000029BC, symSize: 0x54 }
  - { offsetInCU: 0x8FDA, offset: 0x8FDA, size: 0x8, addend: 0x0, symName: __ZNSt3__119__allocate_at_leastB8ue170006INS_9allocatorINS_6vectorIcNS1_IcEEEEEEEENS_19__allocation_resultINS_16allocator_traitsIT_E7pointerEEERS8_m, symObjAddr: 0x1E44, symBinAddr: 0x100002B2C, symSize: 0x40 }
  - { offsetInCU: 0x901D, offset: 0x901D, size: 0x8, addend: 0x0, symName: __ZNSt3__117__libcpp_allocateB8ue170006Emm, symObjAddr: 0x1FCC, symBinAddr: 0x100002CB4, symSize: 0x28 }
  - { offsetInCU: 0x905A, offset: 0x905A, size: 0x8, addend: 0x0, symName: __ZNSt3__121__libcpp_operator_newB8ue170006IJmEEEPvDpT_, symObjAddr: 0x1FF4, symBinAddr: 0x100002CDC, symSize: 0x24 }
  - { offsetInCU: 0x9093, offset: 0x9093, size: 0x8, addend: 0x0, symName: __ZNSt3__142__uninitialized_allocator_move_if_noexceptB8ue170006INS_9allocatorINS_6vectorIcNS1_IcEEEEEENS_16reverse_iteratorIPS4_EES8_S8_EET2_RT_T0_T1_S9_, symObjAddr: 0x2150, symBinAddr: 0x100002E38, symSize: 0x12C }
  - { offsetInCU: 0x9133, offset: 0x9133, size: 0x8, addend: 0x0, symName: __ZNSt3__14swapB8ue170006IPNS_6vectorIcNS_9allocatorIcEEEEEENS_9enable_ifIXaasr21is_move_constructibleIT_EE5valuesr18is_move_assignableIS7_EE5valueEvE4typeERS7_SA_, symObjAddr: 0x22C8, symBinAddr: 0x100002FB0, symSize: 0x3C }
  - { offsetInCU: 0x9184, offset: 0x9184, size: 0x8, addend: 0x0, symName: __ZNSt3__122__make_exception_guardB8ue170006INS_29_AllocatorDestroyRangeReverseINS_9allocatorINS_6vectorIcNS2_IcEEEEEENS_16reverse_iteratorIPS5_EEEEEENS_28__exception_guard_exceptionsIT_EESC_, symObjAddr: 0x2414, symBinAddr: 0x1000030FC, symSize: 0x4C }
  - { offsetInCU: 0x91BA, offset: 0x91BA, size: 0x8, addend: 0x0, symName: __ZNSt3__1neB8ue170006IPNS_6vectorIcNS_9allocatorIcEEEES5_EEbRKNS_16reverse_iteratorIT_EERKNS6_IT0_EE, symObjAddr: 0x24A4, symBinAddr: 0x10000318C, symSize: 0x48 }
  - { offsetInCU: 0x9206, offset: 0x9206, size: 0x8, addend: 0x0, symName: __ZNSt3__112__to_addressB8ue170006INS_16reverse_iteratorIPNS_6vectorIcNS_9allocatorIcEEEEEEvEEu7__decayIDTclsr19__to_address_helperIT_EE6__callclsr3stdE7declvalIRKS8_EEEEESA_, symObjAddr: 0x24EC, symBinAddr: 0x1000031D4, symSize: 0x24 }
  - { offsetInCU: 0x9265, offset: 0x9265, size: 0x8, addend: 0x0, symName: __ZNSt3__119__allocator_destroyB8ue170006INS_9allocatorINS_6vectorIcNS1_IcEEEEEENS_16reverse_iteratorINS6_IPS4_EEEES9_EEvRT_T0_T1_, symObjAddr: 0x279C, symBinAddr: 0x100003484, symSize: 0x70 }
  - { offsetInCU: 0x92CA, offset: 0x92CA, size: 0x8, addend: 0x0, symName: __ZNSt3__1neB8ue170006INS_16reverse_iteratorIPNS_6vectorIcNS_9allocatorIcEEEEEES7_EEbRKNS1_IT_EERKNS1_IT0_EE, symObjAddr: 0x2848, symBinAddr: 0x100003530, symSize: 0x60 }
  - { offsetInCU: 0x9316, offset: 0x9316, size: 0x8, addend: 0x0, symName: __ZNSt3__112__to_addressB8ue170006INS_16reverse_iteratorINS1_IPNS_6vectorIcNS_9allocatorIcEEEEEEEEvEEu7__decayIDTclsr19__to_address_helperIT_EE6__callclsr3stdE7declvalIRKS9_EEEEESB_, symObjAddr: 0x28D4, symBinAddr: 0x1000035BC, symSize: 0x24 }
  - { offsetInCU: 0x9375, offset: 0x9375, size: 0x8, addend: 0x0, symName: __ZNSt3__119__libcpp_deallocateB8ue170006EPvmm, symObjAddr: 0x2C90, symBinAddr: 0x100003978, symSize: 0x30 }
  - { offsetInCU: 0x93BD, offset: 0x93BD, size: 0x8, addend: 0x0, symName: __ZNSt3__127__do_deallocate_handle_sizeB8ue170006IJEEEvPvmDpT_, symObjAddr: 0x2CC0, symBinAddr: 0x1000039A8, symSize: 0x28 }
  - { offsetInCU: 0x93FB, offset: 0x93FB, size: 0x8, addend: 0x0, symName: __ZNSt3__124__libcpp_operator_deleteB8ue170006IJPvEEEvDpT_, symObjAddr: 0x2CE8, symBinAddr: 0x1000039D0, symSize: 0x24 }
  - { offsetInCU: 0x9430, offset: 0x9430, size: 0x8, addend: 0x0, symName: __ZNSt3__112__to_addressB8ue170006IcEEPT_S2_, symObjAddr: 0x31B8, symBinAddr: 0x100003EA0, symSize: 0x14 }
  - { offsetInCU: 0x9465, offset: 0x9465, size: 0x8, addend: 0x0, symName: __ZNSt3__119__allocate_at_leastB8ue170006INS_9allocatorIcEEEENS_19__allocation_resultINS_16allocator_traitsIT_E7pointerEEERS5_m, symObjAddr: 0x39D0, symBinAddr: 0x1000046B8, symSize: 0x40 }
  - { offsetInCU: 0x94A8, offset: 0x94A8, size: 0x8, addend: 0x0, symName: __ZNSt3__142__uninitialized_allocator_move_if_noexceptB8ue170006INS_9allocatorIcEENS_16reverse_iteratorIPcEES5_cvEET1_RT_T0_S9_S6_, symObjAddr: 0x3B84, symBinAddr: 0x10000486C, symSize: 0x78 }
  - { offsetInCU: 0x9525, offset: 0x9525, size: 0x8, addend: 0x0, symName: __ZNSt3__14swapB8ue170006IPcEENS_9enable_ifIXaasr21is_move_constructibleIT_EE5valuesr18is_move_assignableIS3_EE5valueEvE4typeERS3_S6_, symObjAddr: 0x3C48, symBinAddr: 0x100004930, symSize: 0x3C }
  - { offsetInCU: 0x9576, offset: 0x9576, size: 0x8, addend: 0x0, symName: __ZNSt3__14moveB8ue170006INS_16reverse_iteratorIPcEES3_EET0_T_S5_S4_, symObjAddr: 0x3D30, symBinAddr: 0x100004A18, symSize: 0x78 }
  - { offsetInCU: 0x95D0, offset: 0x95D0, size: 0x8, addend: 0x0, symName: __ZNSt3__16__moveB8ue170006INS_17_ClassicAlgPolicyENS_16reverse_iteratorIPcEES4_S4_EENS_4pairIT0_T2_EES6_T1_S7_, symObjAddr: 0x3DA8, symBinAddr: 0x100004A90, symSize: 0x64 }
  - { offsetInCU: 0x963C, offset: 0x963C, size: 0x8, addend: 0x0, symName: __ZNSt3__123__dispatch_copy_or_moveB8ue170006INS_17_ClassicAlgPolicyENS_11__move_loopIS1_EENS_14__move_trivialENS_16reverse_iteratorIPcEES7_S7_EENS_4pairIT2_T4_EES9_T3_SA_, symObjAddr: 0x3E0C, symBinAddr: 0x100004AF4, symSize: 0x64 }
  - { offsetInCU: 0x96BA, offset: 0x96BA, size: 0x8, addend: 0x0, symName: __ZNSt3__121__unwrap_and_dispatchB8ue170006INS_10__overloadINS_11__move_loopINS_17_ClassicAlgPolicyEEENS_14__move_trivialEEENS_16reverse_iteratorIPcEES9_S9_Li0EEENS_4pairIT0_T2_EESB_T1_SC_, symObjAddr: 0x3E70, symBinAddr: 0x100004B58, symSize: 0x12C }
  - { offsetInCU: 0x974A, offset: 0x974A, size: 0x8, addend: 0x0, symName: __ZNSt3__114__unwrap_rangeB8ue170006INS_16reverse_iteratorIPcEES3_EENS_4pairIT0_S5_EET_S7_, symObjAddr: 0x3F9C, symBinAddr: 0x100004C84, symSize: 0x84 }
  - { offsetInCU: 0x98C5, offset: 0x98C5, size: 0x8, addend: 0x0, symName: __ZNSt3__113__unwrap_iterB8ue170006INS_16reverse_iteratorIPcEENS_18__unwrap_iter_implIS3_Lb0EEELi0EEEDTclsrT0_8__unwrapclsr3stdE7declvalIT_EEEES7_, symObjAddr: 0x40C0, symBinAddr: 0x100004DA8, symSize: 0x44 }
  - { offsetInCU: 0x9909, offset: 0x9909, size: 0x8, addend: 0x0, symName: __ZNSt3__19make_pairB8ue170006INS_16reverse_iteratorIPcEES3_EENS_4pairINS_18__unwrap_ref_decayIT_E4typeENS5_IT0_E4typeEEEOS6_OS9_, symObjAddr: 0x4104, symBinAddr: 0x100004DEC, symSize: 0x38 }
  - { offsetInCU: 0x9958, offset: 0x9958, size: 0x8, addend: 0x0, symName: __ZNSt3__114__rewrap_rangeB8ue170006INS_16reverse_iteratorIPcEES3_EET_S4_T0_, symObjAddr: 0x413C, symBinAddr: 0x100004E24, symSize: 0x5C }
  - { offsetInCU: 0x99A4, offset: 0x99A4, size: 0x8, addend: 0x0, symName: __ZNSt3__113__rewrap_iterB8ue170006INS_16reverse_iteratorIPcEES3_NS_18__unwrap_iter_implIS3_Lb0EEEEET_S6_T0_, symObjAddr: 0x4198, symBinAddr: 0x100004E80, symSize: 0x74 }
  - { offsetInCU: 0x99F9, offset: 0x99F9, size: 0x8, addend: 0x0, symName: __ZNSt3__1neB8ue170006IPcS1_EEbRKNS_16reverse_iteratorIT_EERKNS2_IT0_EE, symObjAddr: 0x420C, symBinAddr: 0x100004EF4, symSize: 0x48 }
  - { offsetInCU: 0x9AF7, offset: 0x9AF7, size: 0x8, addend: 0x0, symName: __ZNSt3__112__to_addressB8ue170006IiEEPT_S2_, symObjAddr: 0x48F0, symBinAddr: 0x1000055D8, symSize: 0x14 }
  - { offsetInCU: 0x9B2C, offset: 0x9B2C, size: 0x8, addend: 0x0, symName: __ZNSt3__19use_facetB8ue170006INS_5ctypeIcEEEERKT_RKNS_6localeE, symObjAddr: 0x4CFC, symBinAddr: 0x1000059E4, symSize: 0x2C }
  - { offsetInCU: 0xA2D4, offset: 0xA2D4, size: 0x8, addend: 0x0, symName: __ZSt28__throw_bad_array_new_lengthB8ue170006v, symObjAddr: 0x1F98, symBinAddr: 0x100002C80, symSize: 0x34 }
  - { offsetInCU: 0xA77B, offset: 0xA77B, size: 0x8, addend: 0x0, symName: __ZL8gameOver, symObjAddr: 0x383C0, symBinAddr: 0x10000C0E0, symSize: 0x0 }
  - { offsetInCU: 0xA794, offset: 0xA794, size: 0x8, addend: 0x0, symName: __ZL12isPlayerTurn, symObjAddr: 0x4FC8, symBinAddr: 0x10000C010, symSize: 0x0 }
  - { offsetInCU: 0xAA07, offset: 0xAA07, size: 0x8, addend: 0x0, symName: __ZNSt3__16vectorINS0_IcNS_9allocatorIcEEEENS1_IS3_EEE26__swap_out_circular_bufferERNS_14__split_bufferIS3_RS4_EE, symObjAddr: 0x1800, symBinAddr: 0x1000024E8, symSize: 0x110 }
  - { offsetInCU: 0xAA9D, offset: 0xAA9D, size: 0x8, addend: 0x0, symName: __ZNSt3__16vectorIcNS_9allocatorIcEEE26__swap_out_circular_bufferERNS_14__split_bufferIcRS2_EE, symObjAddr: 0x3670, symBinAddr: 0x100004358, symSize: 0x110 }
  - { offsetInCU: 0xCDC4, offset: 0xCDC4, size: 0x8, addend: 0x0, symName: __ZN11ConnectFourC1Ev, symObjAddr: 0x0, symBinAddr: 0x100000CE8, symSize: 0x2C }
  - { offsetInCU: 0xCDED, offset: 0xCDED, size: 0x8, addend: 0x0, symName: __ZN11ConnectFourD1Ev, symObjAddr: 0x2C, symBinAddr: 0x100000D14, symSize: 0x2C }
  - { offsetInCU: 0xCE16, offset: 0xCE16, size: 0x8, addend: 0x0, symName: _main, symObjAddr: 0x58, symBinAddr: 0x100000D40, symSize: 0x194 }
  - { offsetInCU: 0xCE5C, offset: 0xCE5C, size: 0x8, addend: 0x0, symName: __Z11checkForWinv, symObjAddr: 0x1EC, symBinAddr: 0x100000ED4, symSize: 0x250 }
  - { offsetInCU: 0xCF07, offset: 0xCF07, size: 0x8, addend: 0x0, symName: __Z8makeMoveii, symObjAddr: 0x43C, symBinAddr: 0x100001124, symSize: 0xEC }
  - { offsetInCU: 0xD044, offset: 0xD044, size: 0x8, addend: 0x0, symName: __ZNSt3__113basic_ostreamIcNS_11char_traitsIcEEElsB8ue170006EPFRS3_S4_E, symObjAddr: 0x528, symBinAddr: 0x100001210, symSize: 0x2C }
  - { offsetInCU: 0xD077, offset: 0xD077, size: 0x8, addend: 0x0, symName: __Z11drawCirclesii, symObjAddr: 0x5AC, symBinAddr: 0x100001294, symSize: 0x2D8 }
  - { offsetInCU: 0xD13D, offset: 0xD13D, size: 0x8, addend: 0x0, symName: __Z9drawFramev, symObjAddr: 0x884, symBinAddr: 0x10000156C, symSize: 0xC8 }
  - { offsetInCU: 0xD157, offset: 0xD157, size: 0x8, addend: 0x0, symName: __Z14drawFrameLinesv, symObjAddr: 0x94C, symBinAddr: 0x100001634, symSize: 0x130 }
  - { offsetInCU: 0xD1F4, offset: 0xD1F4, size: 0x8, addend: 0x0, symName: __ZNSt3__16vectorINS0_IcNS_9allocatorIcEEEENS1_IS3_EEEixB8ue170006Em, symObjAddr: 0xA7C, symBinAddr: 0x100001764, symSize: 0x2C }
  - { offsetInCU: 0xD22A, offset: 0xD22A, size: 0x8, addend: 0x0, symName: __ZNSt3__16vectorIcNS_9allocatorIcEEEixB8ue170006Em, symObjAddr: 0xAA8, symBinAddr: 0x100001790, symSize: 0x24 }
  - { offsetInCU: 0xD260, offset: 0xD260, size: 0x8, addend: 0x0, symName: __ZN11ConnectFourC2Ev, symObjAddr: 0xACC, symBinAddr: 0x1000017B4, symSize: 0x1A8 }
  - { offsetInCU: 0xD2BB, offset: 0xD2BB, size: 0x8, addend: 0x0, symName: __ZNSt3__16vectorINS0_IcNS_9allocatorIcEEEENS1_IS3_EEEC1B8ue170006Ev, symObjAddr: 0xC74, symBinAddr: 0x10000195C, symSize: 0x2C }
  - { offsetInCU: 0xD2E4, offset: 0xD2E4, size: 0x8, addend: 0x0, symName: __ZNSt3__16vectorIiNS_9allocatorIiEEEC1B8ue170006Ev, symObjAddr: 0xCA0, symBinAddr: 0x100001988, symSize: 0x2C }
  - { offsetInCU: 0xD30C, offset: 0xD30C, size: 0x8, addend: 0x0, symName: __ZNSt3__16vectorINS0_IcNS_9allocatorIcEEEENS1_IS3_EEE9push_backB8ue170006EOS3_, symObjAddr: 0xCCC, symBinAddr: 0x1000019B4, symSize: 0x6C }
  - { offsetInCU: 0xD342, offset: 0xD342, size: 0x8, addend: 0x0, symName: __ZNSt3__16vectorIcNS_9allocatorIcEEEC1B8ue170006Ev, symObjAddr: 0xD38, symBinAddr: 0x100001A20, symSize: 0x2C }
  - { offsetInCU: 0xD36B, offset: 0xD36B, size: 0x8, addend: 0x0, symName: __ZNSt3__16vectorIcNS_9allocatorIcEEED1B8ue170006Ev, symObjAddr: 0xD64, symBinAddr: 0x100001A4C, symSize: 0x2C }
  - { offsetInCU: 0xD393, offset: 0xD393, size: 0x8, addend: 0x0, symName: __ZNSt3__16vectorIcNS_9allocatorIcEEE9push_backB8ue170006EOc, symObjAddr: 0xD90, symBinAddr: 0x100001A78, symSize: 0x6C }
  - { offsetInCU: 0xD3C9, offset: 0xD3C9, size: 0x8, addend: 0x0, symName: __ZNSt3__16vectorIiNS_9allocatorIiEEED1B8ue170006Ev, symObjAddr: 0xDFC, symBinAddr: 0x100001AE4, symSize: 0x2C }
  - { offsetInCU: 0xD3F2, offset: 0xD3F2, size: 0x8, addend: 0x0, symName: __ZNSt3__16vectorINS0_IcNS_9allocatorIcEEEENS1_IS3_EEED1B8ue170006Ev, symObjAddr: 0xE28, symBinAddr: 0x100001B10, symSize: 0x2C }
  - { offsetInCU: 0xD41B, offset: 0xD41B, size: 0x8, addend: 0x0, symName: __ZNSt3__16vectorINS0_IcNS_9allocatorIcEEEENS1_IS3_EEEC2B8ue170006Ev, symObjAddr: 0xE54, symBinAddr: 0x100001B3C, symSize: 0x4C }
  - { offsetInCU: 0xD44E, offset: 0xD44E, size: 0x8, addend: 0x0, symName: __ZNSt3__117__compressed_pairIPNS_6vectorIcNS_9allocatorIcEEEENS2_IS4_EEEC1B8ue170006IDnNS_18__default_init_tagEEEOT_OT0_, symObjAddr: 0xEA0, symBinAddr: 0x100001B88, symSize: 0x3C }
  - { offsetInCU: 0xD4A5, offset: 0xD4A5, size: 0x8, addend: 0x0, symName: __ZNSt3__117__compressed_pairIPNS_6vectorIcNS_9allocatorIcEEEENS2_IS4_EEEC2B8ue170006IDnNS_18__default_init_tagEEEOT_OT0_, symObjAddr: 0xEE8, symBinAddr: 0x100001BD0, symSize: 0x40 }
  - { offsetInCU: 0xD4FC, offset: 0xD4FC, size: 0x8, addend: 0x0, symName: __ZNSt3__122__compressed_pair_elemIPNS_6vectorIcNS_9allocatorIcEEEELi0ELb0EEC2B8ue170006IDnvEEOT_, symObjAddr: 0xF28, symBinAddr: 0x100001C10, symSize: 0x1C }
  - { offsetInCU: 0xD53D, offset: 0xD53D, size: 0x8, addend: 0x0, symName: __ZNSt3__122__compressed_pair_elemINS_9allocatorINS_6vectorIcNS1_IcEEEEEELi1ELb1EEC2B8ue170006ENS_18__default_init_tagE, symObjAddr: 0xF44, symBinAddr: 0x100001C2C, symSize: 0x2C }
  - { offsetInCU: 0xD571, offset: 0xD571, size: 0x8, addend: 0x0, symName: __ZNSt3__19allocatorINS_6vectorIcNS0_IcEEEEEC2B8ue170006Ev, symObjAddr: 0xF70, symBinAddr: 0x100001C58, symSize: 0x2C }
  - { offsetInCU: 0xD59A, offset: 0xD59A, size: 0x8, addend: 0x0, symName: __ZNSt3__116__non_trivial_ifILb1ENS_9allocatorINS_6vectorIcNS1_IcEEEEEEEC2B8ue170006Ev, symObjAddr: 0xF9C, symBinAddr: 0x100001C84, symSize: 0x14 }
  - { offsetInCU: 0xD5C3, offset: 0xD5C3, size: 0x8, addend: 0x0, symName: __ZNSt3__16vectorIiNS_9allocatorIiEEEC2B8ue170006Ev, symObjAddr: 0xFB0, symBinAddr: 0x100001C98, symSize: 0x4C }
  - { offsetInCU: 0xD5EC, offset: 0xD5EC, size: 0x8, addend: 0x0, symName: __ZNSt3__117__compressed_pairIPiNS_9allocatorIiEEEC1B8ue170006IDnNS_18__default_init_tagEEEOT_OT0_, symObjAddr: 0xFFC, symBinAddr: 0x100001CE4, symSize: 0x3C }
  - { offsetInCU: 0xD643, offset: 0xD643, size: 0x8, addend: 0x0, symName: __ZNSt3__117__compressed_pairIPiNS_9allocatorIiEEEC2B8ue170006IDnNS_18__default_init_tagEEEOT_OT0_, symObjAddr: 0x1038, symBinAddr: 0x100001D20, symSize: 0x40 }
  - { offsetInCU: 0xD69A, offset: 0xD69A, size: 0x8, addend: 0x0, symName: __ZNSt3__122__compressed_pair_elemIPiLi0ELb0EEC2B8ue170006IDnvEEOT_, symObjAddr: 0x1078, symBinAddr: 0x100001D60, symSize: 0x1C }
  - { offsetInCU: 0xD6DB, offset: 0xD6DB, size: 0x8, addend: 0x0, symName: __ZNSt3__122__compressed_pair_elemINS_9allocatorIiEELi1ELb1EEC2B8ue170006ENS_18__default_init_tagE, symObjAddr: 0x1094, symBinAddr: 0x100001D7C, symSize: 0x2C }
  - { offsetInCU: 0xD70F, offset: 0xD70F, size: 0x8, addend: 0x0, symName: __ZNSt3__19allocatorIiEC2B8ue170006Ev, symObjAddr: 0x10C0, symBinAddr: 0x100001DA8, symSize: 0x2C }
  - { offsetInCU: 0xD738, offset: 0xD738, size: 0x8, addend: 0x0, symName: __ZNSt3__116__non_trivial_ifILb1ENS_9allocatorIiEEEC2B8ue170006Ev, symObjAddr: 0x10EC, symBinAddr: 0x100001DD4, symSize: 0x14 }
  - { offsetInCU: 0xD761, offset: 0xD761, size: 0x8, addend: 0x0, symName: __ZNSt3__16vectorINS0_IcNS_9allocatorIcEEEENS1_IS3_EEE9__end_capB8ue170006Ev, symObjAddr: 0x1100, symBinAddr: 0x100001DE8, symSize: 0x28 }
  - { offsetInCU: 0xD786, offset: 0xD786, size: 0x8, addend: 0x0, symName: __ZNSt3__16vectorINS0_IcNS_9allocatorIcEEEENS1_IS3_EEE22__construct_one_at_endB8ue170006IJS3_EEEvDpOT_, symObjAddr: 0x1128, symBinAddr: 0x100001E10, symSize: 0x90 }
  - { offsetInCU: 0xD7D3, offset: 0xD7D3, size: 0x8, addend: 0x0, symName: __ZNSt3__16vectorINS0_IcNS_9allocatorIcEEEENS1_IS3_EEE21__push_back_slow_pathIS3_EEvOT_, symObjAddr: 0x11B8, symBinAddr: 0x100001EA0, symSize: 0xD8 }
  - { offsetInCU: 0xD830, offset: 0xD830, size: 0x8, addend: 0x0, symName: __ZNSt3__117__compressed_pairIPNS_6vectorIcNS_9allocatorIcEEEENS2_IS4_EEE5firstB8ue170006Ev, symObjAddr: 0x1290, symBinAddr: 0x100001F78, symSize: 0x24 }
  - { offsetInCU: 0xD855, offset: 0xD855, size: 0x8, addend: 0x0, symName: __ZNSt3__122__compressed_pair_elemIPNS_6vectorIcNS_9allocatorIcEEEELi0ELb0EE5__getB8ue170006Ev, symObjAddr: 0x12B4, symBinAddr: 0x100001F9C, symSize: 0x14 }
  - { offsetInCU: 0xD893, offset: 0xD893, size: 0x8, addend: 0x0, symName: __ZNSt3__16vectorINS0_IcNS_9allocatorIcEEEENS1_IS3_EEE21_ConstructTransactionC1B8ue170006ERS5_m, symObjAddr: 0x12C8, symBinAddr: 0x100001FB0, symSize: 0x3C }
  - { offsetInCU: 0xD8DA, offset: 0xD8DA, size: 0x8, addend: 0x0, symName: __ZNSt3__116allocator_traitsINS_9allocatorINS_6vectorIcNS1_IcEEEEEEE9constructB8ue170006IS4_JS4_EvEEvRS5_PT_DpOT0_, symObjAddr: 0x1304, symBinAddr: 0x100001FEC, symSize: 0x34 }
  - { offsetInCU: 0xD931, offset: 0xD931, size: 0x8, addend: 0x0, symName: __ZNSt3__16vectorINS0_IcNS_9allocatorIcEEEENS1_IS3_EEE7__allocB8ue170006Ev, symObjAddr: 0x1338, symBinAddr: 0x100002020, symSize: 0x28 }
  - { offsetInCU: 0xD956, offset: 0xD956, size: 0x8, addend: 0x0, symName: __ZNSt3__16vectorINS0_IcNS_9allocatorIcEEEENS1_IS3_EEE21_ConstructTransactionD1B8ue170006Ev, symObjAddr: 0x1374, symBinAddr: 0x10000205C, symSize: 0x2C }
  - { offsetInCU: 0xD97F, offset: 0xD97F, size: 0x8, addend: 0x0, symName: __ZNSt3__16vectorINS0_IcNS_9allocatorIcEEEENS1_IS3_EEE21_ConstructTransactionC2B8ue170006ERS5_m, symObjAddr: 0x13A0, symBinAddr: 0x100002088, symSize: 0x4C }
  - { offsetInCU: 0xD9C6, offset: 0xD9C6, size: 0x8, addend: 0x0, symName: __ZNSt3__19allocatorINS_6vectorIcNS0_IcEEEEE9constructB8ue170006IS3_JS3_EEEvPT_DpOT0_, symObjAddr: 0x13EC, symBinAddr: 0x1000020D4, symSize: 0x30 }
  - { offsetInCU: 0xDA1B, offset: 0xDA1B, size: 0x8, addend: 0x0, symName: __ZNSt3__16vectorIcNS_9allocatorIcEEEC1B8ue170006EOS3_, symObjAddr: 0x141C, symBinAddr: 0x100002104, symSize: 0x34 }
  - { offsetInCU: 0xDA55, offset: 0xDA55, size: 0x8, addend: 0x0, symName: __ZNSt3__16vectorIcNS_9allocatorIcEEEC2B8ue170006EOS3_, symObjAddr: 0x1450, symBinAddr: 0x100002138, symSize: 0xC4 }
  - { offsetInCU: 0xDA8F, offset: 0xDA8F, size: 0x8, addend: 0x0, symName: __ZNSt3__16vectorIcNS_9allocatorIcEEE7__allocB8ue170006Ev, symObjAddr: 0x1514, symBinAddr: 0x1000021FC, symSize: 0x28 }
  - { offsetInCU: 0xDAB9, offset: 0xDAB9, size: 0x8, addend: 0x0, symName: __ZNSt3__117__compressed_pairIPcNS_9allocatorIcEEEC1B8ue170006IDnS3_EEOT_OT0_, symObjAddr: 0x153C, symBinAddr: 0x100002224, symSize: 0x3C }
  - { offsetInCU: 0xDB10, offset: 0xDB10, size: 0x8, addend: 0x0, symName: __ZNSt3__16vectorIcNS_9allocatorIcEEE9__end_capB8ue170006Ev, symObjAddr: 0x1578, symBinAddr: 0x100002260, symSize: 0x28 }
  - { offsetInCU: 0xDB35, offset: 0xDB35, size: 0x8, addend: 0x0, symName: __ZNSt3__117__compressed_pairIPcNS_9allocatorIcEEE6secondB8ue170006Ev, symObjAddr: 0x15A0, symBinAddr: 0x100002288, symSize: 0x24 }
  - { offsetInCU: 0xDB5A, offset: 0xDB5A, size: 0x8, addend: 0x0, symName: __ZNSt3__122__compressed_pair_elemINS_9allocatorIcEELi1ELb1EE5__getB8ue170006Ev, symObjAddr: 0x15C4, symBinAddr: 0x1000022AC, symSize: 0x14 }
  - { offsetInCU: 0xDB7F, offset: 0xDB7F, size: 0x8, addend: 0x0, symName: __ZNSt3__117__compressed_pairIPcNS_9allocatorIcEEEC2B8ue170006IDnS3_EEOT_OT0_, symObjAddr: 0x15D8, symBinAddr: 0x1000022C0, symSize: 0x44 }
  - { offsetInCU: 0xDBD6, offset: 0xDBD6, size: 0x8, addend: 0x0, symName: __ZNSt3__122__compressed_pair_elemIPcLi0ELb0EEC2B8ue170006IDnvEEOT_, symObjAddr: 0x161C, symBinAddr: 0x100002304, symSize: 0x1C }
  - { offsetInCU: 0xDC17, offset: 0xDC17, size: 0x8, addend: 0x0, symName: __ZNSt3__122__compressed_pair_elemINS_9allocatorIcEELi1ELb1EEC2B8ue170006IS2_vEEOT_, symObjAddr: 0x1638, symBinAddr: 0x100002320, symSize: 0x18 }
  - { offsetInCU: 0xDC58, offset: 0xDC58, size: 0x8, addend: 0x0, symName: __ZNSt3__117__compressed_pairIPcNS_9allocatorIcEEE5firstB8ue170006Ev, symObjAddr: 0x1650, symBinAddr: 0x100002338, symSize: 0x24 }
  - { offsetInCU: 0xDC7D, offset: 0xDC7D, size: 0x8, addend: 0x0, symName: __ZNSt3__122__compressed_pair_elemIPcLi0ELb0EE5__getB8ue170006Ev, symObjAddr: 0x1674, symBinAddr: 0x10000235C, symSize: 0x14 }
  - { offsetInCU: 0xDCA2, offset: 0xDCA2, size: 0x8, addend: 0x0, symName: __ZNSt3__117__compressed_pairIPNS_6vectorIcNS_9allocatorIcEEEENS2_IS4_EEE6secondB8ue170006Ev, symObjAddr: 0x1688, symBinAddr: 0x100002370, symSize: 0x24 }
  - { offsetInCU: 0xDCC7, offset: 0xDCC7, size: 0x8, addend: 0x0, symName: __ZNSt3__122__compressed_pair_elemINS_9allocatorINS_6vectorIcNS1_IcEEEEEELi1ELb1EE5__getB8ue170006Ev, symObjAddr: 0x16AC, symBinAddr: 0x100002394, symSize: 0x14 }
  - { offsetInCU: 0xDCEC, offset: 0xDCEC, size: 0x8, addend: 0x0, symName: __ZNSt3__16vectorINS0_IcNS_9allocatorIcEEEENS1_IS3_EEE21_ConstructTransactionD2B8ue170006Ev, symObjAddr: 0x16C0, symBinAddr: 0x1000023A8, symSize: 0x20 }
  - { offsetInCU: 0xDD14, offset: 0xDD14, size: 0x8, addend: 0x0, symName: __ZNKSt3__16vectorINS0_IcNS_9allocatorIcEEEENS1_IS3_EEE11__recommendB8ue170006Em, symObjAddr: 0x16E0, symBinAddr: 0x1000023C8, symSize: 0xB4 }
  - { offsetInCU: 0xDD68, offset: 0xDD68, size: 0x8, addend: 0x0, symName: __ZNKSt3__16vectorINS0_IcNS_9allocatorIcEEEENS1_IS3_EEE4sizeB8ue170006Ev, symObjAddr: 0x1794, symBinAddr: 0x10000247C, symSize: 0x28 }
  - { offsetInCU: 0xDD8D, offset: 0xDD8D, size: 0x8, addend: 0x0, symName: __ZNSt3__114__split_bufferINS_6vectorIcNS_9allocatorIcEEEERNS2_IS4_EEEC1EmmS6_, symObjAddr: 0x17BC, symBinAddr: 0x1000024A4, symSize: 0x44 }
  - { offsetInCU: 0xDDE2, offset: 0xDDE2, size: 0x8, addend: 0x0, symName: __ZNSt3__114__split_bufferINS_6vectorIcNS_9allocatorIcEEEERNS2_IS4_EEED1Ev, symObjAddr: 0x1910, symBinAddr: 0x1000025F8, symSize: 0x2C }
  - { offsetInCU: 0xDE0C, offset: 0xDE0C, size: 0x8, addend: 0x0, symName: __ZNKSt3__16vectorINS0_IcNS_9allocatorIcEEEENS1_IS3_EEE8max_sizeEv, symObjAddr: 0x193C, symBinAddr: 0x100002624, symSize: 0x60 }
  - { offsetInCU: 0xDE33, offset: 0xDE33, size: 0x8, addend: 0x0, symName: __ZNKSt3__16vectorINS0_IcNS_9allocatorIcEEEENS1_IS3_EEE20__throw_length_errorB8ue170006Ev, symObjAddr: 0x199C, symBinAddr: 0x100002684, symSize: 0x1C }
  - { offsetInCU: 0xDE58, offset: 0xDE58, size: 0x8, addend: 0x0, symName: __ZNKSt3__16vectorINS0_IcNS_9allocatorIcEEEENS1_IS3_EEE8capacityB8ue170006Ev, symObjAddr: 0x19B8, symBinAddr: 0x1000026A0, symSize: 0x40 }
  - { offsetInCU: 0xDE87, offset: 0xDE87, size: 0x8, addend: 0x0, symName: __ZNSt3__116allocator_traitsINS_9allocatorINS_6vectorIcNS1_IcEEEEEEE8max_sizeB8ue170006IS5_vEEmRKS5_, symObjAddr: 0x1A50, symBinAddr: 0x100002738, symSize: 0x24 }
  - { offsetInCU: 0xDEB5, offset: 0xDEB5, size: 0x8, addend: 0x0, symName: __ZNKSt3__16vectorINS0_IcNS_9allocatorIcEEEENS1_IS3_EEE7__allocB8ue170006Ev, symObjAddr: 0x1A74, symBinAddr: 0x10000275C, symSize: 0x28 }
  - { offsetInCU: 0xDEDA, offset: 0xDEDA, size: 0x8, addend: 0x0, symName: __ZNSt3__114numeric_limitsIlE3maxB8ue170006Ev, symObjAddr: 0x1A9C, symBinAddr: 0x100002784, symSize: 0x14 }
  - { offsetInCU: 0xDF02, offset: 0xDF02, size: 0x8, addend: 0x0, symName: __ZNKSt3__16__lessIvvEclB8ue170006ImmEEbRKT_RKT0_, symObjAddr: 0x1B04, symBinAddr: 0x1000027EC, symSize: 0x34 }
  - { offsetInCU: 0xDF55, offset: 0xDF55, size: 0x8, addend: 0x0, symName: __ZNKSt3__19allocatorINS_6vectorIcNS0_IcEEEEE8max_sizeB8ue170006Ev, symObjAddr: 0x1B38, symBinAddr: 0x100002820, symSize: 0x18 }
  - { offsetInCU: 0xDF7A, offset: 0xDF7A, size: 0x8, addend: 0x0, symName: __ZNKSt3__117__compressed_pairIPNS_6vectorIcNS_9allocatorIcEEEENS2_IS4_EEE6secondB8ue170006Ev, symObjAddr: 0x1B50, symBinAddr: 0x100002838, symSize: 0x24 }
  - { offsetInCU: 0xDF9F, offset: 0xDF9F, size: 0x8, addend: 0x0, symName: __ZNKSt3__122__compressed_pair_elemINS_9allocatorINS_6vectorIcNS1_IcEEEEEELi1ELb1EE5__getB8ue170006Ev, symObjAddr: 0x1B74, symBinAddr: 0x10000285C, symSize: 0x14 }
  - { offsetInCU: 0xDFC4, offset: 0xDFC4, size: 0x8, addend: 0x0, symName: __ZNSt3__123__libcpp_numeric_limitsIlLb1EE3maxB8ue170006Ev, symObjAddr: 0x1B88, symBinAddr: 0x100002870, symSize: 0x8 }
  - { offsetInCU: 0xDFD8, offset: 0xDFD8, size: 0x8, addend: 0x0, symName: __ZNSt12length_errorC1B8ue170006EPKc, symObjAddr: 0x1BF4, symBinAddr: 0x1000028DC, symSize: 0x34 }
  - { offsetInCU: 0xE00F, offset: 0xE00F, size: 0x8, addend: 0x0, symName: __ZNSt12length_errorC2B8ue170006EPKc, symObjAddr: 0x1C28, symBinAddr: 0x100002910, symSize: 0x4C }
  - { offsetInCU: 0xE046, offset: 0xE046, size: 0x8, addend: 0x0, symName: __ZNKSt3__16vectorINS0_IcNS_9allocatorIcEEEENS1_IS3_EEE9__end_capB8ue170006Ev, symObjAddr: 0x1C74, symBinAddr: 0x10000295C, symSize: 0x28 }
  - { offsetInCU: 0xE06B, offset: 0xE06B, size: 0x8, addend: 0x0, symName: __ZNKSt3__117__compressed_pairIPNS_6vectorIcNS_9allocatorIcEEEENS2_IS4_EEE5firstB8ue170006Ev, symObjAddr: 0x1C9C, symBinAddr: 0x100002984, symSize: 0x24 }
  - { offsetInCU: 0xE090, offset: 0xE090, size: 0x8, addend: 0x0, symName: __ZNKSt3__122__compressed_pair_elemIPNS_6vectorIcNS_9allocatorIcEEEELi0ELb0EE5__getB8ue170006Ev, symObjAddr: 0x1CC0, symBinAddr: 0x1000029A8, symSize: 0x14 }
  - { offsetInCU: 0xE0B5, offset: 0xE0B5, size: 0x8, addend: 0x0, symName: __ZNSt3__114__split_bufferINS_6vectorIcNS_9allocatorIcEEEERNS2_IS4_EEEC2EmmS6_, symObjAddr: 0x1D28, symBinAddr: 0x100002A10, symSize: 0xE0 }
  - { offsetInCU: 0xE128, offset: 0xE128, size: 0x8, addend: 0x0, symName: __ZNSt3__117__compressed_pairIPNS_6vectorIcNS_9allocatorIcEEEERNS2_IS4_EEEC1B8ue170006IDnS7_EEOT_OT0_, symObjAddr: 0x1E08, symBinAddr: 0x100002AF0, symSize: 0x3C }
  - { offsetInCU: 0xE17F, offset: 0xE17F, size: 0x8, addend: 0x0, symName: __ZNSt3__114__split_bufferINS_6vectorIcNS_9allocatorIcEEEERNS2_IS4_EEE7__allocB8ue170006Ev, symObjAddr: 0x1E84, symBinAddr: 0x100002B6C, symSize: 0x28 }
  - { offsetInCU: 0xE1A4, offset: 0xE1A4, size: 0x8, addend: 0x0, symName: __ZNSt3__114__split_bufferINS_6vectorIcNS_9allocatorIcEEEERNS2_IS4_EEE9__end_capB8ue170006Ev, symObjAddr: 0x1EAC, symBinAddr: 0x100002B94, symSize: 0x28 }
  - { offsetInCU: 0xE1C9, offset: 0xE1C9, size: 0x8, addend: 0x0, symName: __ZNSt3__117__compressed_pairIPNS_6vectorIcNS_9allocatorIcEEEERNS2_IS4_EEEC2B8ue170006IDnS7_EEOT_OT0_, symObjAddr: 0x1ED4, symBinAddr: 0x100002BBC, symSize: 0x48 }
  - { offsetInCU: 0xE220, offset: 0xE220, size: 0x8, addend: 0x0, symName: __ZNSt3__122__compressed_pair_elemIRNS_9allocatorINS_6vectorIcNS1_IcEEEEEELi1ELb0EEC2B8ue170006IS6_vEEOT_, symObjAddr: 0x1F1C, symBinAddr: 0x100002C04, symSize: 0x20 }
  - { offsetInCU: 0xE261, offset: 0xE261, size: 0x8, addend: 0x0, symName: __ZNSt3__19allocatorINS_6vectorIcNS0_IcEEEEE8allocateB8ue170006Em, symObjAddr: 0x1F3C, symBinAddr: 0x100002C24, symSize: 0x5C }
  - { offsetInCU: 0xE294, offset: 0xE294, size: 0x8, addend: 0x0, symName: __ZNSt3__117__compressed_pairIPNS_6vectorIcNS_9allocatorIcEEEERNS2_IS4_EEE6secondB8ue170006Ev, symObjAddr: 0x2018, symBinAddr: 0x100002D00, symSize: 0x28 }
  - { offsetInCU: 0xE2B9, offset: 0xE2B9, size: 0x8, addend: 0x0, symName: __ZNSt3__122__compressed_pair_elemIRNS_9allocatorINS_6vectorIcNS1_IcEEEEEELi1ELb0EE5__getB8ue170006Ev, symObjAddr: 0x2040, symBinAddr: 0x100002D28, symSize: 0x18 }
  - { offsetInCU: 0xE2DE, offset: 0xE2DE, size: 0x8, addend: 0x0, symName: __ZNSt3__117__compressed_pairIPNS_6vectorIcNS_9allocatorIcEEEERNS2_IS4_EEE5firstB8ue170006Ev, symObjAddr: 0x2058, symBinAddr: 0x100002D40, symSize: 0x24 }
  - { offsetInCU: 0xE303, offset: 0xE303, size: 0x8, addend: 0x0, symName: __ZNKSt3__16vectorINS0_IcNS_9allocatorIcEEEENS1_IS3_EEE17__annotate_deleteB8ue170006Ev, symObjAddr: 0x207C, symBinAddr: 0x100002D64, symSize: 0xD4 }
  - { offsetInCU: 0xE328, offset: 0xE328, size: 0x8, addend: 0x0, symName: __ZNSt3__116reverse_iteratorIPNS_6vectorIcNS_9allocatorIcEEEEEC1B8ue170006ES5_, symObjAddr: 0x227C, symBinAddr: 0x100002F64, symSize: 0x34 }
  - { offsetInCU: 0xE35F, offset: 0xE35F, size: 0x8, addend: 0x0, symName: __ZNKSt3__116reverse_iteratorIPNS_6vectorIcNS_9allocatorIcEEEEE4baseB8ue170006Ev, symObjAddr: 0x22B0, symBinAddr: 0x100002F98, symSize: 0x18 }
  - { offsetInCU: 0xE384, offset: 0xE384, size: 0x8, addend: 0x0, symName: __ZNKSt3__16vectorINS0_IcNS_9allocatorIcEEEENS1_IS3_EEE14__annotate_newB8ue170006Em, symObjAddr: 0x2304, symBinAddr: 0x100002FEC, symSize: 0xC8 }
  - { offsetInCU: 0xE3B8, offset: 0xE3B8, size: 0x8, addend: 0x0, symName: __ZNKSt3__16vectorINS0_IcNS_9allocatorIcEEEENS1_IS3_EEE31__annotate_contiguous_containerB8ue170006EPKvS7_S7_S7_, symObjAddr: 0x23CC, symBinAddr: 0x1000030B4, symSize: 0x20 }
  - { offsetInCU: 0xE409, offset: 0xE409, size: 0x8, addend: 0x0, symName: __ZNKSt3__16vectorINS0_IcNS_9allocatorIcEEEENS1_IS3_EEE4dataB8ue170006Ev, symObjAddr: 0x23EC, symBinAddr: 0x1000030D4, symSize: 0x28 }
  - { offsetInCU: 0xE42E, offset: 0xE42E, size: 0x8, addend: 0x0, symName: __ZNSt3__129_AllocatorDestroyRangeReverseINS_9allocatorINS_6vectorIcNS1_IcEEEEEENS_16reverse_iteratorIPS4_EEEC1B8ue170006ERS5_RS8_SB_, symObjAddr: 0x2460, symBinAddr: 0x100003148, symSize: 0x44 }
  - { offsetInCU: 0xE484, offset: 0xE484, size: 0x8, addend: 0x0, symName: __ZNKSt3__116reverse_iteratorIPNS_6vectorIcNS_9allocatorIcEEEEEdeB8ue170006Ev, symObjAddr: 0x2510, symBinAddr: 0x1000031F8, symSize: 0x28 }
  - { offsetInCU: 0xE4B7, offset: 0xE4B7, size: 0x8, addend: 0x0, symName: __ZNSt3__116reverse_iteratorIPNS_6vectorIcNS_9allocatorIcEEEEEppB8ue170006Ev, symObjAddr: 0x2538, symBinAddr: 0x100003220, symSize: 0x20 }
  - { offsetInCU: 0xE4DC, offset: 0xE4DC, size: 0x8, addend: 0x0, symName: __ZNSt3__128__exception_guard_exceptionsINS_29_AllocatorDestroyRangeReverseINS_9allocatorINS_6vectorIcNS2_IcEEEEEENS_16reverse_iteratorIPS5_EEEEE10__completeB8ue170006Ev, symObjAddr: 0x2558, symBinAddr: 0x100003240, symSize: 0x1C }
  - { offsetInCU: 0xE501, offset: 0xE501, size: 0x8, addend: 0x0, symName: __ZNSt3__128__exception_guard_exceptionsINS_29_AllocatorDestroyRangeReverseINS_9allocatorINS_6vectorIcNS2_IcEEEEEENS_16reverse_iteratorIPS5_EEEEED1B8ue170006Ev, symObjAddr: 0x2574, symBinAddr: 0x10000325C, symSize: 0x2C }
  - { offsetInCU: 0xE52A, offset: 0xE52A, size: 0x8, addend: 0x0, symName: __ZNSt3__128__exception_guard_exceptionsINS_29_AllocatorDestroyRangeReverseINS_9allocatorINS_6vectorIcNS2_IcEEEEEENS_16reverse_iteratorIPS5_EEEEEC1B8ue170006ESA_, symObjAddr: 0x25A0, symBinAddr: 0x100003288, symSize: 0x34 }
  - { offsetInCU: 0xE562, offset: 0xE562, size: 0x8, addend: 0x0, symName: __ZNSt3__128__exception_guard_exceptionsINS_29_AllocatorDestroyRangeReverseINS_9allocatorINS_6vectorIcNS2_IcEEEEEENS_16reverse_iteratorIPS5_EEEEEC2B8ue170006ESA_, symObjAddr: 0x25D4, symBinAddr: 0x1000032BC, symSize: 0x30 }
  - { offsetInCU: 0xE59A, offset: 0xE59A, size: 0x8, addend: 0x0, symName: __ZNSt3__129_AllocatorDestroyRangeReverseINS_9allocatorINS_6vectorIcNS1_IcEEEEEENS_16reverse_iteratorIPS4_EEEC2B8ue170006ERS5_RS8_SB_, symObjAddr: 0x2604, symBinAddr: 0x1000032EC, symSize: 0x38 }
  - { offsetInCU: 0xE5F5, offset: 0xE5F5, size: 0x8, addend: 0x0, symName: __ZNSt3__119__to_address_helperINS_16reverse_iteratorIPNS_6vectorIcNS_9allocatorIcEEEEEEvE6__callB8ue170006ERKS7_, symObjAddr: 0x263C, symBinAddr: 0x100003324, symSize: 0x38 }
  - { offsetInCU: 0xE618, offset: 0xE618, size: 0x8, addend: 0x0, symName: __ZNKSt3__116reverse_iteratorIPNS_6vectorIcNS_9allocatorIcEEEEEptB8ue170006Ev, symObjAddr: 0x2674, symBinAddr: 0x10000335C, symSize: 0x24 }
  - { offsetInCU: 0xE63D, offset: 0xE63D, size: 0x8, addend: 0x0, symName: __ZNSt3__128__exception_guard_exceptionsINS_29_AllocatorDestroyRangeReverseINS_9allocatorINS_6vectorIcNS2_IcEEEEEENS_16reverse_iteratorIPS5_EEEEED2B8ue170006Ev, symObjAddr: 0x2698, symBinAddr: 0x100003380, symSize: 0x50 }
  - { offsetInCU: 0xE666, offset: 0xE666, size: 0x8, addend: 0x0, symName: __ZNKSt3__129_AllocatorDestroyRangeReverseINS_9allocatorINS_6vectorIcNS1_IcEEEEEENS_16reverse_iteratorIPS4_EEEclB8ue170006Ev, symObjAddr: 0x26E8, symBinAddr: 0x1000033D0, symSize: 0xB4 }
  - { offsetInCU: 0xE68C, offset: 0xE68C, size: 0x8, addend: 0x0, symName: __ZNSt3__116reverse_iteratorINS0_IPNS_6vectorIcNS_9allocatorIcEEEEEEEC1B8ue170006ES6_, symObjAddr: 0x280C, symBinAddr: 0x1000034F4, symSize: 0x3C }
  - { offsetInCU: 0xE6C3, offset: 0xE6C3, size: 0x8, addend: 0x0, symName: __ZNSt3__116allocator_traitsINS_9allocatorINS_6vectorIcNS1_IcEEEEEEE7destroyB8ue170006IS4_vEEvRS5_PT_, symObjAddr: 0x28A8, symBinAddr: 0x100003590, symSize: 0x2C }
  - { offsetInCU: 0xE700, offset: 0xE700, size: 0x8, addend: 0x0, symName: __ZNSt3__116reverse_iteratorINS0_IPNS_6vectorIcNS_9allocatorIcEEEEEEEppB8ue170006Ev, symObjAddr: 0x28F8, symBinAddr: 0x1000035E0, symSize: 0x30 }
  - { offsetInCU: 0xE725, offset: 0xE725, size: 0x8, addend: 0x0, symName: __ZNKSt3__116reverse_iteratorINS0_IPNS_6vectorIcNS_9allocatorIcEEEEEEE4baseB8ue170006Ev, symObjAddr: 0x2928, symBinAddr: 0x100003610, symSize: 0x24 }
  - { offsetInCU: 0xE74A, offset: 0xE74A, size: 0x8, addend: 0x0, symName: __ZNSt3__19allocatorINS_6vectorIcNS0_IcEEEEE7destroyB8ue170006EPS3_, symObjAddr: 0x294C, symBinAddr: 0x100003634, symSize: 0x28 }
  - { offsetInCU: 0xE782, offset: 0xE782, size: 0x8, addend: 0x0, symName: __ZNSt3__119__to_address_helperINS_16reverse_iteratorINS1_IPNS_6vectorIcNS_9allocatorIcEEEEEEEEvE6__callB8ue170006ERKS8_, symObjAddr: 0x2974, symBinAddr: 0x10000365C, symSize: 0x38 }
  - { offsetInCU: 0xE7A5, offset: 0xE7A5, size: 0x8, addend: 0x0, symName: __ZNKSt3__116reverse_iteratorINS0_IPNS_6vectorIcNS_9allocatorIcEEEEEEEptB8ue170006Ev, symObjAddr: 0x29AC, symBinAddr: 0x100003694, symSize: 0x24 }
  - { offsetInCU: 0xE7CA, offset: 0xE7CA, size: 0x8, addend: 0x0, symName: __ZNKSt3__116reverse_iteratorINS0_IPNS_6vectorIcNS_9allocatorIcEEEEEEEdeB8ue170006Ev, symObjAddr: 0x29D0, symBinAddr: 0x1000036B8, symSize: 0x34 }
  - { offsetInCU: 0xE7FD, offset: 0xE7FD, size: 0x8, addend: 0x0, symName: __ZNSt3__116reverse_iteratorIPNS_6vectorIcNS_9allocatorIcEEEEEmmB8ue170006Ev, symObjAddr: 0x2A04, symBinAddr: 0x1000036EC, symSize: 0x20 }
  - { offsetInCU: 0xE822, offset: 0xE822, size: 0x8, addend: 0x0, symName: __ZNSt3__116reverse_iteratorINS0_IPNS_6vectorIcNS_9allocatorIcEEEEEEEC2B8ue170006ES6_, symObjAddr: 0x2A24, symBinAddr: 0x10000370C, symSize: 0x2C }
  - { offsetInCU: 0xE859, offset: 0xE859, size: 0x8, addend: 0x0, symName: __ZNSt3__116reverse_iteratorIPNS_6vectorIcNS_9allocatorIcEEEEEC2B8ue170006ES5_, symObjAddr: 0x2A50, symBinAddr: 0x100003738, symSize: 0x28 }
  - { offsetInCU: 0xE890, offset: 0xE890, size: 0x8, addend: 0x0, symName: __ZNSt3__114__split_bufferINS_6vectorIcNS_9allocatorIcEEEERNS2_IS4_EEED2Ev, symObjAddr: 0x2A78, symBinAddr: 0x100003760, symSize: 0x8C }
  - { offsetInCU: 0xE8BB, offset: 0xE8BB, size: 0x8, addend: 0x0, symName: __ZNSt3__114__split_bufferINS_6vectorIcNS_9allocatorIcEEEERNS2_IS4_EEE5clearB8ue170006Ev, symObjAddr: 0x2B04, symBinAddr: 0x1000037EC, symSize: 0x28 }
  - { offsetInCU: 0xE8E0, offset: 0xE8E0, size: 0x8, addend: 0x0, symName: __ZNSt3__116allocator_traitsINS_9allocatorINS_6vectorIcNS1_IcEEEEEEE10deallocateB8ue170006ERS5_PS4_m, symObjAddr: 0x2B2C, symBinAddr: 0x100003814, symSize: 0x34 }
  - { offsetInCU: 0xE922, offset: 0xE922, size: 0x8, addend: 0x0, symName: __ZNKSt3__114__split_bufferINS_6vectorIcNS_9allocatorIcEEEERNS2_IS4_EEE8capacityB8ue170006Ev, symObjAddr: 0x2B60, symBinAddr: 0x100003848, symSize: 0x40 }
  - { offsetInCU: 0xE947, offset: 0xE947, size: 0x8, addend: 0x0, symName: __ZNSt3__114__split_bufferINS_6vectorIcNS_9allocatorIcEEEERNS2_IS4_EEE17__destruct_at_endB8ue170006EPS4_, symObjAddr: 0x2BA0, symBinAddr: 0x100003888, symSize: 0x2C }
  - { offsetInCU: 0xE979, offset: 0xE979, size: 0x8, addend: 0x0, symName: __ZNSt3__114__split_bufferINS_6vectorIcNS_9allocatorIcEEEERNS2_IS4_EEE17__destruct_at_endB8ue170006EPS4_NS_17integral_constantIbLb0EEE, symObjAddr: 0x2BCC, symBinAddr: 0x1000038B4, symSize: 0x80 }
  - { offsetInCU: 0xE9B9, offset: 0xE9B9, size: 0x8, addend: 0x0, symName: __ZNSt3__19allocatorINS_6vectorIcNS0_IcEEEEE10deallocateB8ue170006EPS3_m, symObjAddr: 0x2C4C, symBinAddr: 0x100003934, symSize: 0x44 }
  - { offsetInCU: 0xE9FA, offset: 0xE9FA, size: 0x8, addend: 0x0, symName: __ZNKSt3__114__split_bufferINS_6vectorIcNS_9allocatorIcEEEERNS2_IS4_EEE9__end_capB8ue170006Ev, symObjAddr: 0x2D0C, symBinAddr: 0x1000039F4, symSize: 0x28 }
  - { offsetInCU: 0xEA1F, offset: 0xEA1F, size: 0x8, addend: 0x0, symName: __ZNKSt3__117__compressed_pairIPNS_6vectorIcNS_9allocatorIcEEEERNS2_IS4_EEE5firstB8ue170006Ev, symObjAddr: 0x2D34, symBinAddr: 0x100003A1C, symSize: 0x24 }
  - { offsetInCU: 0xEA44, offset: 0xEA44, size: 0x8, addend: 0x0, symName: __ZNSt3__16vectorIcNS_9allocatorIcEEEC2B8ue170006Ev, symObjAddr: 0x2D58, symBinAddr: 0x100003A40, symSize: 0x4C }
  - { offsetInCU: 0xEA6D, offset: 0xEA6D, size: 0x8, addend: 0x0, symName: __ZNSt3__117__compressed_pairIPcNS_9allocatorIcEEEC1B8ue170006IDnNS_18__default_init_tagEEEOT_OT0_, symObjAddr: 0x2DA4, symBinAddr: 0x100003A8C, symSize: 0x3C }
  - { offsetInCU: 0xEAC4, offset: 0xEAC4, size: 0x8, addend: 0x0, symName: __ZNSt3__117__compressed_pairIPcNS_9allocatorIcEEEC2B8ue170006IDnNS_18__default_init_tagEEEOT_OT0_, symObjAddr: 0x2DE0, symBinAddr: 0x100003AC8, symSize: 0x40 }
  - { offsetInCU: 0xEB1B, offset: 0xEB1B, size: 0x8, addend: 0x0, symName: __ZNSt3__122__compressed_pair_elemINS_9allocatorIcEELi1ELb1EEC2B8ue170006ENS_18__default_init_tagE, symObjAddr: 0x2E20, symBinAddr: 0x100003B08, symSize: 0x2C }
  - { offsetInCU: 0xEB4F, offset: 0xEB4F, size: 0x8, addend: 0x0, symName: __ZNSt3__19allocatorIcEC2B8ue170006Ev, symObjAddr: 0x2E4C, symBinAddr: 0x100003B34, symSize: 0x2C }
  - { offsetInCU: 0xEB78, offset: 0xEB78, size: 0x8, addend: 0x0, symName: __ZNSt3__116__non_trivial_ifILb1ENS_9allocatorIcEEEC2B8ue170006Ev, symObjAddr: 0x2E78, symBinAddr: 0x100003B60, symSize: 0x14 }
  - { offsetInCU: 0xEBA1, offset: 0xEBA1, size: 0x8, addend: 0x0, symName: __ZNSt3__16vectorIcNS_9allocatorIcEEED2B8ue170006Ev, symObjAddr: 0x2E8C, symBinAddr: 0x100003B74, symSize: 0x44 }
  - { offsetInCU: 0xEBCA, offset: 0xEBCA, size: 0x8, addend: 0x0, symName: __ZNSt3__16vectorIcNS_9allocatorIcEEE16__destroy_vectorC1B8ue170006ERS3_, symObjAddr: 0x2ED0, symBinAddr: 0x100003BB8, symSize: 0x34 }
  - { offsetInCU: 0xEC02, offset: 0xEC02, size: 0x8, addend: 0x0, symName: __ZNSt3__16vectorIcNS_9allocatorIcEEE16__destroy_vectorclB8ue170006Ev, symObjAddr: 0x2F04, symBinAddr: 0x100003BEC, symSize: 0x90 }
  - { offsetInCU: 0xEC27, offset: 0xEC27, size: 0x8, addend: 0x0, symName: __ZNSt3__16vectorIcNS_9allocatorIcEEE16__destroy_vectorC2B8ue170006ERS3_, symObjAddr: 0x2F94, symBinAddr: 0x100003C7C, symSize: 0x20 }
  - { offsetInCU: 0xEC5F, offset: 0xEC5F, size: 0x8, addend: 0x0, symName: __ZNSt3__16vectorIcNS_9allocatorIcEEE7__clearB8ue170006Ev, symObjAddr: 0x2FB4, symBinAddr: 0x100003C9C, symSize: 0x28 }
  - { offsetInCU: 0xEC84, offset: 0xEC84, size: 0x8, addend: 0x0, symName: __ZNKSt3__16vectorIcNS_9allocatorIcEEE17__annotate_deleteB8ue170006Ev, symObjAddr: 0x2FDC, symBinAddr: 0x100003CC4, symSize: 0xB8 }
  - { offsetInCU: 0xECA9, offset: 0xECA9, size: 0x8, addend: 0x0, symName: __ZNSt3__116allocator_traitsINS_9allocatorIcEEE10deallocateB8ue170006ERS2_Pcm, symObjAddr: 0x3094, symBinAddr: 0x100003D7C, symSize: 0x34 }
  - { offsetInCU: 0xECEB, offset: 0xECEB, size: 0x8, addend: 0x0, symName: __ZNKSt3__16vectorIcNS_9allocatorIcEEE8capacityB8ue170006Ev, symObjAddr: 0x30C8, symBinAddr: 0x100003DB0, symSize: 0x38 }
  - { offsetInCU: 0xED10, offset: 0xED10, size: 0x8, addend: 0x0, symName: __ZNSt3__16vectorIcNS_9allocatorIcEEE22__base_destruct_at_endB8ue170006EPc, symObjAddr: 0x3100, symBinAddr: 0x100003DE8, symSize: 0x8C }
  - { offsetInCU: 0xED53, offset: 0xED53, size: 0x8, addend: 0x0, symName: __ZNSt3__116allocator_traitsINS_9allocatorIcEEE7destroyB8ue170006IcvEEvRS2_PT_, symObjAddr: 0x318C, symBinAddr: 0x100003E74, symSize: 0x2C }
  - { offsetInCU: 0xED90, offset: 0xED90, size: 0x8, addend: 0x0, symName: __ZNSt3__19allocatorIcE7destroyB8ue170006EPc, symObjAddr: 0x31CC, symBinAddr: 0x100003EB4, symSize: 0x14 }
  - { offsetInCU: 0xEDC3, offset: 0xEDC3, size: 0x8, addend: 0x0, symName: __ZNKSt3__16vectorIcNS_9allocatorIcEEE31__annotate_contiguous_containerB8ue170006EPKvS5_S5_S5_, symObjAddr: 0x31E0, symBinAddr: 0x100003EC8, symSize: 0x20 }
  - { offsetInCU: 0xEE14, offset: 0xEE14, size: 0x8, addend: 0x0, symName: __ZNKSt3__16vectorIcNS_9allocatorIcEEE4dataB8ue170006Ev, symObjAddr: 0x3200, symBinAddr: 0x100003EE8, symSize: 0x28 }
  - { offsetInCU: 0xEE39, offset: 0xEE39, size: 0x8, addend: 0x0, symName: __ZNKSt3__16vectorIcNS_9allocatorIcEEE4sizeB8ue170006Ev, symObjAddr: 0x3228, symBinAddr: 0x100003F10, symSize: 0x20 }
  - { offsetInCU: 0xEE5E, offset: 0xEE5E, size: 0x8, addend: 0x0, symName: __ZNSt3__19allocatorIcE10deallocateB8ue170006EPcm, symObjAddr: 0x3248, symBinAddr: 0x100003F30, symSize: 0x40 }
  - { offsetInCU: 0xEE9F, offset: 0xEE9F, size: 0x8, addend: 0x0, symName: __ZNKSt3__16vectorIcNS_9allocatorIcEEE9__end_capB8ue170006Ev, symObjAddr: 0x3288, symBinAddr: 0x100003F70, symSize: 0x28 }
  - { offsetInCU: 0xEEC4, offset: 0xEEC4, size: 0x8, addend: 0x0, symName: __ZNKSt3__117__compressed_pairIPcNS_9allocatorIcEEE5firstB8ue170006Ev, symObjAddr: 0x32B0, symBinAddr: 0x100003F98, symSize: 0x24 }
  - { offsetInCU: 0xEEE9, offset: 0xEEE9, size: 0x8, addend: 0x0, symName: __ZNKSt3__122__compressed_pair_elemIPcLi0ELb0EE5__getB8ue170006Ev, symObjAddr: 0x32D4, symBinAddr: 0x100003FBC, symSize: 0x14 }
  - { offsetInCU: 0xEF13, offset: 0xEF13, size: 0x8, addend: 0x0, symName: __ZNSt3__16vectorIcNS_9allocatorIcEEE22__construct_one_at_endB8ue170006IJcEEEvDpOT_, symObjAddr: 0x32E8, symBinAddr: 0x100003FD0, symSize: 0x90 }
  - { offsetInCU: 0xEF60, offset: 0xEF60, size: 0x8, addend: 0x0, symName: __ZNSt3__16vectorIcNS_9allocatorIcEEE21__push_back_slow_pathIcEEvOT_, symObjAddr: 0x3378, symBinAddr: 0x100004060, symSize: 0xD8 }
  - { offsetInCU: 0xEFD6, offset: 0xEFD6, size: 0x8, addend: 0x0, symName: __ZNSt3__16vectorIcNS_9allocatorIcEEE21_ConstructTransactionC1B8ue170006ERS3_m, symObjAddr: 0x3450, symBinAddr: 0x100004138, symSize: 0x3C }
  - { offsetInCU: 0xF01D, offset: 0xF01D, size: 0x8, addend: 0x0, symName: __ZNSt3__116allocator_traitsINS_9allocatorIcEEE9constructB8ue170006IcJcEvEEvRS2_PT_DpOT0_, symObjAddr: 0x348C, symBinAddr: 0x100004174, symSize: 0x34 }
  - { offsetInCU: 0xF074, offset: 0xF074, size: 0x8, addend: 0x0, symName: __ZNSt3__16vectorIcNS_9allocatorIcEEE21_ConstructTransactionD1B8ue170006Ev, symObjAddr: 0x34C0, symBinAddr: 0x1000041A8, symSize: 0x2C }
  - { offsetInCU: 0xF09D, offset: 0xF09D, size: 0x8, addend: 0x0, symName: __ZNSt3__16vectorIcNS_9allocatorIcEEE21_ConstructTransactionC2B8ue170006ERS3_m, symObjAddr: 0x34EC, symBinAddr: 0x1000041D4, symSize: 0x44 }
  - { offsetInCU: 0xF0E4, offset: 0xF0E4, size: 0x8, addend: 0x0, symName: __ZNSt3__19allocatorIcE9constructB8ue170006IcJcEEEvPT_DpOT0_, symObjAddr: 0x3530, symBinAddr: 0x100004218, symSize: 0x28 }
  - { offsetInCU: 0xF139, offset: 0xF139, size: 0x8, addend: 0x0, symName: __ZNSt3__16vectorIcNS_9allocatorIcEEE21_ConstructTransactionD2B8ue170006Ev, symObjAddr: 0x3558, symBinAddr: 0x100004240, symSize: 0x20 }
  - { offsetInCU: 0xF161, offset: 0xF161, size: 0x8, addend: 0x0, symName: __ZNKSt3__16vectorIcNS_9allocatorIcEEE11__recommendB8ue170006Em, symObjAddr: 0x3578, symBinAddr: 0x100004260, symSize: 0xB4 }
  - { offsetInCU: 0xF1B5, offset: 0xF1B5, size: 0x8, addend: 0x0, symName: __ZNSt3__114__split_bufferIcRNS_9allocatorIcEEEC1EmmS3_, symObjAddr: 0x362C, symBinAddr: 0x100004314, symSize: 0x44 }
  - { offsetInCU: 0xF20A, offset: 0xF20A, size: 0x8, addend: 0x0, symName: __ZNSt3__114__split_bufferIcRNS_9allocatorIcEEED1Ev, symObjAddr: 0x3780, symBinAddr: 0x100004468, symSize: 0x2C }
  - { offsetInCU: 0xF234, offset: 0xF234, size: 0x8, addend: 0x0, symName: __ZNKSt3__16vectorIcNS_9allocatorIcEEE8max_sizeEv, symObjAddr: 0x37AC, symBinAddr: 0x100004494, symSize: 0x60 }
  - { offsetInCU: 0xF25B, offset: 0xF25B, size: 0x8, addend: 0x0, symName: __ZNKSt3__16vectorIcNS_9allocatorIcEEE20__throw_length_errorB8ue170006Ev, symObjAddr: 0x380C, symBinAddr: 0x1000044F4, symSize: 0x1C }
  - { offsetInCU: 0xF28A, offset: 0xF28A, size: 0x8, addend: 0x0, symName: __ZNSt3__116allocator_traitsINS_9allocatorIcEEE8max_sizeB8ue170006IS2_vEEmRKS2_, symObjAddr: 0x3828, symBinAddr: 0x100004510, symSize: 0x24 }
  - { offsetInCU: 0xF2B8, offset: 0xF2B8, size: 0x8, addend: 0x0, symName: __ZNKSt3__16vectorIcNS_9allocatorIcEEE7__allocB8ue170006Ev, symObjAddr: 0x384C, symBinAddr: 0x100004534, symSize: 0x28 }
  - { offsetInCU: 0xF2DD, offset: 0xF2DD, size: 0x8, addend: 0x0, symName: __ZNKSt3__19allocatorIcE8max_sizeB8ue170006Ev, symObjAddr: 0x3874, symBinAddr: 0x10000455C, symSize: 0x14 }
  - { offsetInCU: 0xF302, offset: 0xF302, size: 0x8, addend: 0x0, symName: __ZNKSt3__117__compressed_pairIPcNS_9allocatorIcEEE6secondB8ue170006Ev, symObjAddr: 0x3888, symBinAddr: 0x100004570, symSize: 0x24 }
  - { offsetInCU: 0xF327, offset: 0xF327, size: 0x8, addend: 0x0, symName: __ZNKSt3__122__compressed_pair_elemINS_9allocatorIcEELi1ELb1EE5__getB8ue170006Ev, symObjAddr: 0x38AC, symBinAddr: 0x100004594, symSize: 0x14 }
  - { offsetInCU: 0xF34C, offset: 0xF34C, size: 0x8, addend: 0x0, symName: __ZNSt3__114__split_bufferIcRNS_9allocatorIcEEEC2EmmS3_, symObjAddr: 0x38C0, symBinAddr: 0x1000045A8, symSize: 0xD4 }
  - { offsetInCU: 0xF3BF, offset: 0xF3BF, size: 0x8, addend: 0x0, symName: __ZNSt3__117__compressed_pairIPcRNS_9allocatorIcEEEC1B8ue170006IDnS4_EEOT_OT0_, symObjAddr: 0x3994, symBinAddr: 0x10000467C, symSize: 0x3C }
  - { offsetInCU: 0xF416, offset: 0xF416, size: 0x8, addend: 0x0, symName: __ZNSt3__114__split_bufferIcRNS_9allocatorIcEEE7__allocB8ue170006Ev, symObjAddr: 0x3A10, symBinAddr: 0x1000046F8, symSize: 0x28 }
  - { offsetInCU: 0xF43B, offset: 0xF43B, size: 0x8, addend: 0x0, symName: __ZNSt3__114__split_bufferIcRNS_9allocatorIcEEE9__end_capB8ue170006Ev, symObjAddr: 0x3A38, symBinAddr: 0x100004720, symSize: 0x28 }
  - { offsetInCU: 0xF460, offset: 0xF460, size: 0x8, addend: 0x0, symName: __ZNSt3__117__compressed_pairIPcRNS_9allocatorIcEEEC2B8ue170006IDnS4_EEOT_OT0_, symObjAddr: 0x3A60, symBinAddr: 0x100004748, symSize: 0x48 }
  - { offsetInCU: 0xF4B7, offset: 0xF4B7, size: 0x8, addend: 0x0, symName: __ZNSt3__122__compressed_pair_elemIRNS_9allocatorIcEELi1ELb0EEC2B8ue170006IS3_vEEOT_, symObjAddr: 0x3AA8, symBinAddr: 0x100004790, symSize: 0x20 }
  - { offsetInCU: 0xF4F8, offset: 0xF4F8, size: 0x8, addend: 0x0, symName: __ZNSt3__19allocatorIcE8allocateB8ue170006Em, symObjAddr: 0x3AC8, symBinAddr: 0x1000047B0, symSize: 0x58 }
  - { offsetInCU: 0xF52B, offset: 0xF52B, size: 0x8, addend: 0x0, symName: __ZNSt3__117__compressed_pairIPcRNS_9allocatorIcEEE6secondB8ue170006Ev, symObjAddr: 0x3B20, symBinAddr: 0x100004808, symSize: 0x28 }
  - { offsetInCU: 0xF550, offset: 0xF550, size: 0x8, addend: 0x0, symName: __ZNSt3__122__compressed_pair_elemIRNS_9allocatorIcEELi1ELb0EE5__getB8ue170006Ev, symObjAddr: 0x3B48, symBinAddr: 0x100004830, symSize: 0x18 }
  - { offsetInCU: 0xF575, offset: 0xF575, size: 0x8, addend: 0x0, symName: __ZNSt3__117__compressed_pairIPcRNS_9allocatorIcEEE5firstB8ue170006Ev, symObjAddr: 0x3B60, symBinAddr: 0x100004848, symSize: 0x24 }
  - { offsetInCU: 0xF59A, offset: 0xF59A, size: 0x8, addend: 0x0, symName: __ZNSt3__116reverse_iteratorIPcEC1B8ue170006ES1_, symObjAddr: 0x3BFC, symBinAddr: 0x1000048E4, symSize: 0x34 }
  - { offsetInCU: 0xF5D1, offset: 0xF5D1, size: 0x8, addend: 0x0, symName: __ZNKSt3__116reverse_iteratorIPcE4baseB8ue170006Ev, symObjAddr: 0x3C30, symBinAddr: 0x100004918, symSize: 0x18 }
  - { offsetInCU: 0xF5F6, offset: 0xF5F6, size: 0x8, addend: 0x0, symName: __ZNKSt3__16vectorIcNS_9allocatorIcEEE14__annotate_newB8ue170006Em, symObjAddr: 0x3C84, symBinAddr: 0x10000496C, symSize: 0xAC }
  - { offsetInCU: 0xF64D, offset: 0xF64D, size: 0x8, addend: 0x0, symName: __ZNKSt3__111__move_loopINS_17_ClassicAlgPolicyEEclB8ue170006INS_16reverse_iteratorIPcEES6_S6_EENS_4pairIT_T1_EES8_T0_S9_, symObjAddr: 0x4020, symBinAddr: 0x100004D08, symSize: 0xA0 }
  - { offsetInCU: 0xF6B7, offset: 0xF6B7, size: 0x8, addend: 0x0, symName: __ZNSt3__18_IterOpsINS_17_ClassicAlgPolicyEE11__iter_moveB8ue170006IRNS_16reverse_iteratorIPcEEEENS_9enable_ifIXsr12is_referenceIDTdeclsr3stdE7declvalIRT_EEEEE5valueEDTclsr3stdE4movedeclsr3stdE7declvalISA_EEEEE4typeEOS9_, symObjAddr: 0x4254, symBinAddr: 0x100004F3C, symSize: 0x28 }
  - { offsetInCU: 0xF6E3, offset: 0xF6E3, size: 0x8, addend: 0x0, symName: __ZNKSt3__116reverse_iteratorIPcEdeB8ue170006Ev, symObjAddr: 0x427C, symBinAddr: 0x100004F64, symSize: 0x28 }
  - { offsetInCU: 0xF716, offset: 0xF716, size: 0x8, addend: 0x0, symName: __ZNSt3__116reverse_iteratorIPcEppB8ue170006Ev, symObjAddr: 0x42A4, symBinAddr: 0x100004F8C, symSize: 0x20 }
  - { offsetInCU: 0xF73B, offset: 0xF73B, size: 0x8, addend: 0x0, symName: __ZNSt3__18_IterOpsINS_17_ClassicAlgPolicyEE25__validate_iter_referenceB8ue170006IRNS_16reverse_iteratorIPcEEEEvv, symObjAddr: 0x42C4, symBinAddr: 0x100004FAC, symSize: 0x4 }
  - { offsetInCU: 0xF759, offset: 0xF759, size: 0x8, addend: 0x0, symName: __ZNSt3__118__unwrap_iter_implINS_16reverse_iteratorIPcEELb0EE8__unwrapB8ue170006ES3_, symObjAddr: 0x42C8, symBinAddr: 0x100004FB0, symSize: 0x24 }
  - { offsetInCU: 0xF781, offset: 0xF781, size: 0x8, addend: 0x0, symName: __ZNSt3__14pairINS_16reverse_iteratorIPcEES3_EC1B8ue170006IS3_S3_LPv0EEEOT_OT0_, symObjAddr: 0x42EC, symBinAddr: 0x100004FD4, symSize: 0x3C }
  - { offsetInCU: 0xF7DE, offset: 0xF7DE, size: 0x8, addend: 0x0, symName: __ZNSt3__14pairINS_16reverse_iteratorIPcEES3_EC2B8ue170006IS3_S3_LPv0EEEOT_OT0_, symObjAddr: 0x4328, symBinAddr: 0x100005010, symSize: 0x34 }
  - { offsetInCU: 0xF83B, offset: 0xF83B, size: 0x8, addend: 0x0, symName: __ZNSt3__118__unwrap_iter_implINS_16reverse_iteratorIPcEELb0EE8__rewrapB8ue170006ES3_S3_, symObjAddr: 0x435C, symBinAddr: 0x100005044, symSize: 0x2C }
  - { offsetInCU: 0xF869, offset: 0xF869, size: 0x8, addend: 0x0, symName: __ZNSt3__116reverse_iteratorIPcEC2B8ue170006ES1_, symObjAddr: 0x4388, symBinAddr: 0x100005070, symSize: 0x28 }
  - { offsetInCU: 0xF8A0, offset: 0xF8A0, size: 0x8, addend: 0x0, symName: __ZNSt3__114__split_bufferIcRNS_9allocatorIcEEED2Ev, symObjAddr: 0x43B0, symBinAddr: 0x100005098, symSize: 0x8C }
  - { offsetInCU: 0xF8CB, offset: 0xF8CB, size: 0x8, addend: 0x0, symName: __ZNSt3__114__split_bufferIcRNS_9allocatorIcEEE5clearB8ue170006Ev, symObjAddr: 0x443C, symBinAddr: 0x100005124, symSize: 0x28 }
  - { offsetInCU: 0xF8F0, offset: 0xF8F0, size: 0x8, addend: 0x0, symName: __ZNKSt3__114__split_bufferIcRNS_9allocatorIcEEE8capacityB8ue170006Ev, symObjAddr: 0x4464, symBinAddr: 0x10000514C, symSize: 0x38 }
  - { offsetInCU: 0xF915, offset: 0xF915, size: 0x8, addend: 0x0, symName: __ZNSt3__114__split_bufferIcRNS_9allocatorIcEEE17__destruct_at_endB8ue170006EPc, symObjAddr: 0x449C, symBinAddr: 0x100005184, symSize: 0x2C }
  - { offsetInCU: 0xF947, offset: 0xF947, size: 0x8, addend: 0x0, symName: __ZNSt3__114__split_bufferIcRNS_9allocatorIcEEE17__destruct_at_endB8ue170006EPcNS_17integral_constantIbLb0EEE, symObjAddr: 0x44C8, symBinAddr: 0x1000051B0, symSize: 0x80 }
  - { offsetInCU: 0xF987, offset: 0xF987, size: 0x8, addend: 0x0, symName: __ZNKSt3__114__split_bufferIcRNS_9allocatorIcEEE9__end_capB8ue170006Ev, symObjAddr: 0x4548, symBinAddr: 0x100005230, symSize: 0x28 }
  - { offsetInCU: 0xF9AC, offset: 0xF9AC, size: 0x8, addend: 0x0, symName: __ZNKSt3__117__compressed_pairIPcRNS_9allocatorIcEEE5firstB8ue170006Ev, symObjAddr: 0x4570, symBinAddr: 0x100005258, symSize: 0x24 }
  - { offsetInCU: 0xF9D1, offset: 0xF9D1, size: 0x8, addend: 0x0, symName: __ZNSt3__16vectorIiNS_9allocatorIiEEED2B8ue170006Ev, symObjAddr: 0x4594, symBinAddr: 0x10000527C, symSize: 0x44 }
  - { offsetInCU: 0xF9FA, offset: 0xF9FA, size: 0x8, addend: 0x0, symName: __ZNSt3__16vectorIiNS_9allocatorIiEEE16__destroy_vectorC1B8ue170006ERS3_, symObjAddr: 0x45D8, symBinAddr: 0x1000052C0, symSize: 0x34 }
  - { offsetInCU: 0xFA32, offset: 0xFA32, size: 0x8, addend: 0x0, symName: __ZNSt3__16vectorIiNS_9allocatorIiEEE16__destroy_vectorclB8ue170006Ev, symObjAddr: 0x460C, symBinAddr: 0x1000052F4, symSize: 0x90 }
  - { offsetInCU: 0xFA57, offset: 0xFA57, size: 0x8, addend: 0x0, symName: __ZNSt3__16vectorIiNS_9allocatorIiEEE16__destroy_vectorC2B8ue170006ERS3_, symObjAddr: 0x469C, symBinAddr: 0x100005384, symSize: 0x20 }
  - { offsetInCU: 0xFA8F, offset: 0xFA8F, size: 0x8, addend: 0x0, symName: __ZNSt3__16vectorIiNS_9allocatorIiEEE7__clearB8ue170006Ev, symObjAddr: 0x46BC, symBinAddr: 0x1000053A4, symSize: 0x28 }
  - { offsetInCU: 0xFAB4, offset: 0xFAB4, size: 0x8, addend: 0x0, symName: __ZNKSt3__16vectorIiNS_9allocatorIiEEE17__annotate_deleteB8ue170006Ev, symObjAddr: 0x46E4, symBinAddr: 0x1000053CC, symSize: 0xB8 }
  - { offsetInCU: 0xFAD9, offset: 0xFAD9, size: 0x8, addend: 0x0, symName: __ZNSt3__116allocator_traitsINS_9allocatorIiEEE10deallocateB8ue170006ERS2_Pim, symObjAddr: 0x479C, symBinAddr: 0x100005484, symSize: 0x34 }
  - { offsetInCU: 0xFB1B, offset: 0xFB1B, size: 0x8, addend: 0x0, symName: __ZNSt3__16vectorIiNS_9allocatorIiEEE7__allocB8ue170006Ev, symObjAddr: 0x47D0, symBinAddr: 0x1000054B8, symSize: 0x28 }
  - { offsetInCU: 0xFB40, offset: 0xFB40, size: 0x8, addend: 0x0, symName: __ZNKSt3__16vectorIiNS_9allocatorIiEEE8capacityB8ue170006Ev, symObjAddr: 0x47F8, symBinAddr: 0x1000054E0, symSize: 0x40 }
  - { offsetInCU: 0xFB65, offset: 0xFB65, size: 0x8, addend: 0x0, symName: __ZNSt3__16vectorIiNS_9allocatorIiEEE22__base_destruct_at_endB8ue170006EPi, symObjAddr: 0x4838, symBinAddr: 0x100005520, symSize: 0x8C }
  - { offsetInCU: 0xFBA8, offset: 0xFBA8, size: 0x8, addend: 0x0, symName: __ZNSt3__116allocator_traitsINS_9allocatorIiEEE7destroyB8ue170006IivEEvRS2_PT_, symObjAddr: 0x48C4, symBinAddr: 0x1000055AC, symSize: 0x2C }
  - { offsetInCU: 0xFBE5, offset: 0xFBE5, size: 0x8, addend: 0x0, symName: __ZNSt3__19allocatorIiE7destroyB8ue170006EPi, symObjAddr: 0x4904, symBinAddr: 0x1000055EC, symSize: 0x14 }
  - { offsetInCU: 0xFC18, offset: 0xFC18, size: 0x8, addend: 0x0, symName: __ZNKSt3__16vectorIiNS_9allocatorIiEEE31__annotate_contiguous_containerB8ue170006EPKvS5_S5_S5_, symObjAddr: 0x4918, symBinAddr: 0x100005600, symSize: 0x20 }
  - { offsetInCU: 0xFC69, offset: 0xFC69, size: 0x8, addend: 0x0, symName: __ZNKSt3__16vectorIiNS_9allocatorIiEEE4dataB8ue170006Ev, symObjAddr: 0x4938, symBinAddr: 0x100005620, symSize: 0x28 }
  - { offsetInCU: 0xFC8E, offset: 0xFC8E, size: 0x8, addend: 0x0, symName: __ZNKSt3__16vectorIiNS_9allocatorIiEEE4sizeB8ue170006Ev, symObjAddr: 0x4960, symBinAddr: 0x100005648, symSize: 0x28 }
  - { offsetInCU: 0xFCB3, offset: 0xFCB3, size: 0x8, addend: 0x0, symName: __ZNSt3__19allocatorIiE10deallocateB8ue170006EPim, symObjAddr: 0x4988, symBinAddr: 0x100005670, symSize: 0x40 }
  - { offsetInCU: 0xFCF4, offset: 0xFCF4, size: 0x8, addend: 0x0, symName: __ZNSt3__117__compressed_pairIPiNS_9allocatorIiEEE6secondB8ue170006Ev, symObjAddr: 0x49C8, symBinAddr: 0x1000056B0, symSize: 0x24 }
  - { offsetInCU: 0xFD19, offset: 0xFD19, size: 0x8, addend: 0x0, symName: __ZNSt3__122__compressed_pair_elemINS_9allocatorIiEELi1ELb1EE5__getB8ue170006Ev, symObjAddr: 0x49EC, symBinAddr: 0x1000056D4, symSize: 0x14 }
  - { offsetInCU: 0xFD3E, offset: 0xFD3E, size: 0x8, addend: 0x0, symName: __ZNKSt3__16vectorIiNS_9allocatorIiEEE9__end_capB8ue170006Ev, symObjAddr: 0x4A00, symBinAddr: 0x1000056E8, symSize: 0x28 }
  - { offsetInCU: 0xFD63, offset: 0xFD63, size: 0x8, addend: 0x0, symName: __ZNKSt3__117__compressed_pairIPiNS_9allocatorIiEEE5firstB8ue170006Ev, symObjAddr: 0x4A28, symBinAddr: 0x100005710, symSize: 0x24 }
  - { offsetInCU: 0xFD88, offset: 0xFD88, size: 0x8, addend: 0x0, symName: __ZNKSt3__122__compressed_pair_elemIPiLi0ELb0EE5__getB8ue170006Ev, symObjAddr: 0x4A4C, symBinAddr: 0x100005734, symSize: 0x14 }
  - { offsetInCU: 0xFDAD, offset: 0xFDAD, size: 0x8, addend: 0x0, symName: __ZNSt3__16vectorINS0_IcNS_9allocatorIcEEEENS1_IS3_EEED2B8ue170006Ev, symObjAddr: 0x4A60, symBinAddr: 0x100005748, symSize: 0x44 }
  - { offsetInCU: 0xFDD6, offset: 0xFDD6, size: 0x8, addend: 0x0, symName: __ZNSt3__16vectorINS0_IcNS_9allocatorIcEEEENS1_IS3_EEE16__destroy_vectorC1B8ue170006ERS5_, symObjAddr: 0x4AA4, symBinAddr: 0x10000578C, symSize: 0x34 }
  - { offsetInCU: 0xFE0E, offset: 0xFE0E, size: 0x8, addend: 0x0, symName: __ZNSt3__16vectorINS0_IcNS_9allocatorIcEEEENS1_IS3_EEE16__destroy_vectorclB8ue170006Ev, symObjAddr: 0x4AD8, symBinAddr: 0x1000057C0, symSize: 0x90 }
  - { offsetInCU: 0xFE33, offset: 0xFE33, size: 0x8, addend: 0x0, symName: __ZNSt3__16vectorINS0_IcNS_9allocatorIcEEEENS1_IS3_EEE16__destroy_vectorC2B8ue170006ERS5_, symObjAddr: 0x4B68, symBinAddr: 0x100005850, symSize: 0x20 }
  - { offsetInCU: 0xFE6B, offset: 0xFE6B, size: 0x8, addend: 0x0, symName: __ZNSt3__16vectorINS0_IcNS_9allocatorIcEEEENS1_IS3_EEE7__clearB8ue170006Ev, symObjAddr: 0x4B88, symBinAddr: 0x100005870, symSize: 0x28 }
  - { offsetInCU: 0xFE90, offset: 0xFE90, size: 0x8, addend: 0x0, symName: __ZNSt3__16vectorINS0_IcNS_9allocatorIcEEEENS1_IS3_EEE22__base_destruct_at_endB8ue170006EPS3_, symObjAddr: 0x4BB0, symBinAddr: 0x100005898, symSize: 0x8C }
  - { offsetInCU: 0xFED3, offset: 0xFED3, size: 0x8, addend: 0x0, symName: __ZN11ConnectFourD2Ev, symObjAddr: 0x4C3C, symBinAddr: 0x100005924, symSize: 0x3C }
  - { offsetInCU: 0xFEFB, offset: 0xFEFB, size: 0x8, addend: 0x0, symName: __ZNKSt3__19basic_iosIcNS_11char_traitsIcEEE5widenB8ue170006Ec, symObjAddr: 0x4C78, symBinAddr: 0x100005960, symSize: 0x84 }
  - { offsetInCU: 0xFF68, offset: 0xFF68, size: 0x8, addend: 0x0, symName: __ZNKSt3__15ctypeIcE5widenB8ue170006Ec, symObjAddr: 0x4D28, symBinAddr: 0x100005A10, symSize: 0x38 }
  - { offsetInCU: 0x4418, offset: 0x144BC, size: 0x8, addend: 0x0, symName: __ZNSt3__124__put_character_sequenceB8ue170006IcNS_11char_traitsIcEEEERNS_13basic_ostreamIT_T0_EES7_PKS4_m, symObjAddr: 0x116C, symBinAddr: 0x100006AC4, symSize: 0x1EC }
  - { offsetInCU: 0x640D, offset: 0x164B1, size: 0x8, addend: 0x0, symName: __ZNSt3__1lsB8ue170006INS_11char_traitsIcEEEERNS_13basic_ostreamIcT_EES6_PKc, symObjAddr: 0x7AC, symBinAddr: 0x1000061F8, symSize: 0x48 }
  - { offsetInCU: 0x6453, offset: 0x164F7, size: 0x8, addend: 0x0, symName: __ZNSt3__1lsB8ue170006INS_11char_traitsIcEEEERNS_13basic_ostreamIcT_EES6_c, symObjAddr: 0x878, symBinAddr: 0x100006240, symSize: 0x34 }
  - { offsetInCU: 0x6499, offset: 0x1653D, size: 0x8, addend: 0x0, symName: __ZNSt3__120__throw_out_of_rangeB8ue170006EPKc, symObjAddr: 0x104C, symBinAddr: 0x1000069C4, symSize: 0x64 }
  - { offsetInCU: 0x64C3, offset: 0x16567, size: 0x8, addend: 0x0, symName: __ZNSt3__116__pad_and_outputB8ue170006IcNS_11char_traitsIcEEEENS_19ostreambuf_iteratorIT_T0_EES6_PKS4_S8_S8_RNS_8ios_baseES4_, symObjAddr: 0x13A8, symBinAddr: 0x100006D00, symSize: 0x240 }
  - { offsetInCU: 0x6593, offset: 0x16637, size: 0x8, addend: 0x0, symName: __ZNSt3__112__to_addressB8ue170006IKcEEPT_S3_, symObjAddr: 0x191C, symBinAddr: 0x1000071FC, symSize: 0x14 }
  - { offsetInCU: 0x65FB, offset: 0x1669F, size: 0x8, addend: 0x0, symName: __ZNSt3__118__constexpr_strlenB8ue170006EPKc, symObjAddr: 0x1C34, symBinAddr: 0x10000742C, symSize: 0x24 }
  - { offsetInCU: 0x8BB1, offset: 0x18C55, size: 0x8, addend: 0x0, symName: __ZN11ConnectFour5isTieEv, symObjAddr: 0x0, symBinAddr: 0x100005A9C, symSize: 0x18 }
  - { offsetInCU: 0x8BD8, offset: 0x18C7C, size: 0x8, addend: 0x0, symName: __ZN11ConnectFour5isWinEc, symObjAddr: 0x18, symBinAddr: 0x100005AB4, symSize: 0x4CC }
  - { offsetInCU: 0x8CF3, offset: 0x18D97, size: 0x8, addend: 0x0, symName: __ZNSt3__16vectorINS0_IcNS_9allocatorIcEEEENS1_IS3_EEE2atEm, symObjAddr: 0x4E4, symBinAddr: 0x100005F80, symSize: 0x68 }
  - { offsetInCU: 0x8D28, offset: 0x18DCC, size: 0x8, addend: 0x0, symName: __ZNSt3__16vectorIcNS_9allocatorIcEEE2atEm, symObjAddr: 0x54C, symBinAddr: 0x100005FE8, symSize: 0x60 }
  - { offsetInCU: 0x8D5D, offset: 0x18E01, size: 0x8, addend: 0x0, symName: __ZN11ConnectFour11isLegalMoveEi, symObjAddr: 0x5FC, symBinAddr: 0x100006048, symSize: 0xAC }
  - { offsetInCU: 0x8D92, offset: 0x18E36, size: 0x8, addend: 0x0, symName: __ZN11ConnectFour10printBoardEv, symObjAddr: 0x6A8, symBinAddr: 0x1000060F4, symSize: 0x104 }
  - { offsetInCU: 0x8DF3, offset: 0x18E97, size: 0x8, addend: 0x0, symName: __ZN11ConnectFour14undoPlayerMoveEv, symObjAddr: 0x8AC, symBinAddr: 0x100006274, symSize: 0x210 }
  - { offsetInCU: 0x8E1A, offset: 0x18EBE, size: 0x8, addend: 0x0, symName: __ZNSt3__16vectorIiNS_9allocatorIiEEEixB8ue170006Em, symObjAddr: 0xABC, symBinAddr: 0x100006484, symSize: 0x24 }
  - { offsetInCU: 0x8E50, offset: 0x18EF4, size: 0x8, addend: 0x0, symName: __ZNSt3__16vectorIiNS_9allocatorIiEEE8pop_backEv, symObjAddr: 0xB08, symBinAddr: 0x1000064A8, symSize: 0x2C }
  - { offsetInCU: 0x8E76, offset: 0x18F1A, size: 0x8, addend: 0x0, symName: __ZN11ConnectFour9getAImoveEv, symObjAddr: 0xB34, symBinAddr: 0x1000064D4, symSize: 0x1D8 }
  - { offsetInCU: 0x8F29, offset: 0x18FCD, size: 0x8, addend: 0x0, symName: __ZN11ConnectFour8makeMoveEib, symObjAddr: 0xD0C, symBinAddr: 0x1000066AC, symSize: 0x94 }
  - { offsetInCU: 0x8F6C, offset: 0x19010, size: 0x8, addend: 0x0, symName: __ZN11ConnectFour7negaMaxEibii, symObjAddr: 0xDA0, symBinAddr: 0x100006740, symSize: 0x1F0 }
  - { offsetInCU: 0x903B, offset: 0x190DF, size: 0x8, addend: 0x0, symName: __ZN11ConnectFour8undoMoveEi, symObjAddr: 0xF90, symBinAddr: 0x100006930, symSize: 0x78 }
  - { offsetInCU: 0x9072, offset: 0x19116, size: 0x8, addend: 0x0, symName: __ZNKSt3__16vectorINS0_IcNS_9allocatorIcEEEENS1_IS3_EEE20__throw_out_of_rangeB8ue170006Ev, symObjAddr: 0x1030, symBinAddr: 0x1000069A8, symSize: 0x1C }
  - { offsetInCU: 0x9098, offset: 0x1913C, size: 0x8, addend: 0x0, symName: __ZNSt12out_of_rangeC1B8ue170006EPKc, symObjAddr: 0x10B0, symBinAddr: 0x100006A28, symSize: 0x34 }
  - { offsetInCU: 0x90CF, offset: 0x19173, size: 0x8, addend: 0x0, symName: __ZNSt12out_of_rangeC2B8ue170006EPKc, symObjAddr: 0x10E4, symBinAddr: 0x100006A5C, symSize: 0x4C }
  - { offsetInCU: 0x9105, offset: 0x191A9, size: 0x8, addend: 0x0, symName: __ZNKSt3__16vectorIcNS_9allocatorIcEEE20__throw_out_of_rangeB8ue170006Ev, symObjAddr: 0x1150, symBinAddr: 0x100006AA8, symSize: 0x1C }
  - { offsetInCU: 0x912B, offset: 0x191CF, size: 0x8, addend: 0x0, symName: __ZNSt3__111char_traitsIcE6lengthB8ue170006EPKc, symObjAddr: 0x1358, symBinAddr: 0x100006CB0, symSize: 0x34 }
  - { offsetInCU: 0x916B, offset: 0x1920F, size: 0x8, addend: 0x0, symName: __ZNKSt3__113basic_ostreamIcNS_11char_traitsIcEEE6sentrycvbB8ue170006Ev, symObjAddr: 0x138C, symBinAddr: 0x100006CE4, symSize: 0x1C }
  - { offsetInCU: 0x9191, offset: 0x19235, size: 0x8, addend: 0x0, symName: __ZNSt3__119ostreambuf_iteratorIcNS_11char_traitsIcEEEC1B8ue170006ERNS_13basic_ostreamIcS2_EE, symObjAddr: 0x15E8, symBinAddr: 0x100006F40, symSize: 0x34 }
  - { offsetInCU: 0x91C7, offset: 0x1926B, size: 0x8, addend: 0x0, symName: __ZNKSt3__18ios_base5flagsB8ue170006Ev, symObjAddr: 0x161C, symBinAddr: 0x100006F74, symSize: 0x18 }
  - { offsetInCU: 0x91EE, offset: 0x19292, size: 0x8, addend: 0x0, symName: __ZNKSt3__19basic_iosIcNS_11char_traitsIcEEE4fillB8ue170006Ev, symObjAddr: 0x1634, symBinAddr: 0x100006F8C, symSize: 0x64 }
  - { offsetInCU: 0x9214, offset: 0x192B8, size: 0x8, addend: 0x0, symName: __ZNKSt3__119ostreambuf_iteratorIcNS_11char_traitsIcEEE6failedB8ue170006Ev, symObjAddr: 0x1698, symBinAddr: 0x100006FF0, symSize: 0x24 }
  - { offsetInCU: 0x9239, offset: 0x192DD, size: 0x8, addend: 0x0, symName: __ZNSt3__19basic_iosIcNS_11char_traitsIcEEE8setstateB8ue170006Ej, symObjAddr: 0x16BC, symBinAddr: 0x100007014, symSize: 0x2C }
  - { offsetInCU: 0x926D, offset: 0x19311, size: 0x8, addend: 0x0, symName: __ZNKSt3__18ios_base5widthB8ue170006Ev, symObjAddr: 0x16F4, symBinAddr: 0x100007040, symSize: 0x18 }
  - { offsetInCU: 0x9294, offset: 0x19338, size: 0x8, addend: 0x0, symName: __ZNSt3__115basic_streambufIcNS_11char_traitsIcEEE5sputnB8ue170006EPKcl, symObjAddr: 0x170C, symBinAddr: 0x100007058, symSize: 0x3C }
  - { offsetInCU: 0x92D6, offset: 0x1937A, size: 0x8, addend: 0x0, symName: __ZNSt3__112basic_stringIcNS_11char_traitsIcEENS_9allocatorIcEEEC1B8ue170006Emc, symObjAddr: 0x1748, symBinAddr: 0x100007094, symSize: 0x3C }
  - { offsetInCU: 0x931C, offset: 0x193C0, size: 0x8, addend: 0x0, symName: __ZNKSt3__112basic_stringIcNS_11char_traitsIcEENS_9allocatorIcEEE4dataB8ue170006Ev, symObjAddr: 0x1784, symBinAddr: 0x1000070D0, symSize: 0x28 }
  - { offsetInCU: 0x9341, offset: 0x193E5, size: 0x8, addend: 0x0, symName: __ZNSt3__18ios_base5widthB8ue170006El, symObjAddr: 0x17AC, symBinAddr: 0x1000070F8, symSize: 0x2C }
  - { offsetInCU: 0x9387, offset: 0x1942B, size: 0x8, addend: 0x0, symName: __ZNSt3__112basic_stringIcNS_11char_traitsIcEENS_9allocatorIcEEEC2B8ue170006Emc, symObjAddr: 0x17D8, symBinAddr: 0x100007124, symSize: 0x4C }
  - { offsetInCU: 0x93D3, offset: 0x19477, size: 0x8, addend: 0x0, symName: __ZNSt3__117__compressed_pairINS_12basic_stringIcNS_11char_traitsIcEENS_9allocatorIcEEE5__repES5_EC1B8ue170006INS_18__default_init_tagESA_EEOT_OT0_, symObjAddr: 0x1824, symBinAddr: 0x100007170, symSize: 0x3C }
  - { offsetInCU: 0x942A, offset: 0x194CE, size: 0x8, addend: 0x0, symName: __ZNSt3__117__compressed_pairINS_12basic_stringIcNS_11char_traitsIcEENS_9allocatorIcEEE5__repES5_EC2B8ue170006INS_18__default_init_tagESA_EEOT_OT0_, symObjAddr: 0x1860, symBinAddr: 0x1000071AC, symSize: 0x3C }
  - { offsetInCU: 0x9481, offset: 0x19525, size: 0x8, addend: 0x0, symName: __ZNSt3__122__compressed_pair_elemINS_12basic_stringIcNS_11char_traitsIcEENS_9allocatorIcEEE5__repELi0ELb0EEC2B8ue170006ENS_18__default_init_tagE, symObjAddr: 0x189C, symBinAddr: 0x1000071E8, symSize: 0x14 }
  - { offsetInCU: 0x94B4, offset: 0x19558, size: 0x8, addend: 0x0, symName: __ZNKSt3__112basic_stringIcNS_11char_traitsIcEENS_9allocatorIcEEE13__get_pointerB8ue170006Ev, symObjAddr: 0x1930, symBinAddr: 0x100007210, symSize: 0x54 }
  - { offsetInCU: 0x94D9, offset: 0x1957D, size: 0x8, addend: 0x0, symName: __ZNKSt3__112basic_stringIcNS_11char_traitsIcEENS_9allocatorIcEEE9__is_longB8ue170006Ev, symObjAddr: 0x1984, symBinAddr: 0x100007264, symSize: 0x38 }
  - { offsetInCU: 0x94FE, offset: 0x195A2, size: 0x8, addend: 0x0, symName: __ZNKSt3__112basic_stringIcNS_11char_traitsIcEENS_9allocatorIcEEE18__get_long_pointerB8ue170006Ev, symObjAddr: 0x19BC, symBinAddr: 0x10000729C, symSize: 0x28 }
  - { offsetInCU: 0x9523, offset: 0x195C7, size: 0x8, addend: 0x0, symName: __ZNKSt3__112basic_stringIcNS_11char_traitsIcEENS_9allocatorIcEEE19__get_short_pointerB8ue170006Ev, symObjAddr: 0x19E4, symBinAddr: 0x1000072C4, symSize: 0x28 }
  - { offsetInCU: 0x9548, offset: 0x195EC, size: 0x8, addend: 0x0, symName: __ZNKSt3__117__compressed_pairINS_12basic_stringIcNS_11char_traitsIcEENS_9allocatorIcEEE5__repES5_E5firstB8ue170006Ev, symObjAddr: 0x1A0C, symBinAddr: 0x1000072EC, symSize: 0x24 }
  - { offsetInCU: 0x956D, offset: 0x19611, size: 0x8, addend: 0x0, symName: __ZNKSt3__122__compressed_pair_elemINS_12basic_stringIcNS_11char_traitsIcEENS_9allocatorIcEEE5__repELi0ELb0EE5__getB8ue170006Ev, symObjAddr: 0x1A30, symBinAddr: 0x100007310, symSize: 0x14 }
  - { offsetInCU: 0x9593, offset: 0x19637, size: 0x8, addend: 0x0, symName: __ZNSt3__114pointer_traitsIPKcE10pointer_toB8ue170006ERS1_, symObjAddr: 0x1A44, symBinAddr: 0x100007324, symSize: 0x14 }
  - { offsetInCU: 0x95B6, offset: 0x1965A, size: 0x8, addend: 0x0, symName: __ZNSt3__119ostreambuf_iteratorIcNS_11char_traitsIcEEEC2B8ue170006ERNS_13basic_ostreamIcS2_EE, symObjAddr: 0x1A58, symBinAddr: 0x100007338, symSize: 0x54 }
  - { offsetInCU: 0x95EC, offset: 0x19690, size: 0x8, addend: 0x0, symName: __ZNKSt3__19basic_iosIcNS_11char_traitsIcEEE5rdbufB8ue170006Ev, symObjAddr: 0x1AAC, symBinAddr: 0x10000738C, symSize: 0x24 }
  - { offsetInCU: 0x9612, offset: 0x196B6, size: 0x8, addend: 0x0, symName: __ZNKSt3__18ios_base5rdbufB8ue170006Ev, symObjAddr: 0x1AD0, symBinAddr: 0x1000073B0, symSize: 0x18 }
  - { offsetInCU: 0x9638, offset: 0x196DC, size: 0x8, addend: 0x0, symName: __ZNSt3__111char_traitsIcE11eq_int_typeB8ue170006Eii, symObjAddr: 0x1AE8, symBinAddr: 0x1000073C8, symSize: 0x28 }
  - { offsetInCU: 0x966B, offset: 0x1970F, size: 0x8, addend: 0x0, symName: __ZNSt3__111char_traitsIcE3eofB8ue170006Ev, symObjAddr: 0x1B10, symBinAddr: 0x1000073F0, symSize: 0x8 }
  - { offsetInCU: 0x967E, offset: 0x19722, size: 0x8, addend: 0x0, symName: __ZNSt3__18ios_base8setstateB8ue170006Ej, symObjAddr: 0x1C00, symBinAddr: 0x1000073F8, symSize: 0x34 }
  - { offsetInCU: 0x96B3, offset: 0x19757, size: 0x8, addend: 0x0, symName: __ZNSt3__16vectorIiNS_9allocatorIiEEE17__destruct_at_endB8ue170006EPi, symObjAddr: 0x1C58, symBinAddr: 0x100007450, symSize: 0x4C }
  - { offsetInCU: 0x96F6, offset: 0x1979A, size: 0x8, addend: 0x0, symName: __ZNKSt3__16vectorIiNS_9allocatorIiEEE17__annotate_shrinkB8ue170006Em, symObjAddr: 0x1D30, symBinAddr: 0x10000749C, symSize: 0xB4 }
...
