---
triple:          'arm64-apple-darwin'
binary-path:     '/Users/owner/Desktop/raylib/projects/VSCode/utils'
relocations:
  - { offsetInCU: 0x3F, offset: 0x3F, size: 0x8, addend: 0x0, symName: _tilesUsed, symObjAddr: 0x7EF0, symBinAddr: 0x100010000, symSize: 0x0 }
  - { offsetInCU: 0x66, offset: 0x66, size: 0x8, addend: 0x0, symName: _mask, symObjAddr: 0x3AEF8, symBinAddr: 0x100010010, symSize: 0x0 }
  - { offsetInCU: 0x7B, offset: 0x7B, size: 0x8, addend: 0x0, symName: _currP, symObjAddr: 0x3AF00, symBinAddr: 0x100010018, symSize: 0x0 }
  - { offsetInCU: 0xA3, offset: 0xA3, size: 0x8, addend: 0x0, symName: _indentationLevel, symObjAddr: 0x7EF8, symBinAddr: 0x100010008, symSize: 0x0 }
  - { offsetInCU: 0x36C0, offset: 0x36C0, size: 0x8, addend: 0x0, symName: __ZNSt3__124__put_character_sequenceB8ue170006IcNS_11char_traitsIcEEEERNS_13basic_ostreamIT_T0_EES7_PKS4_m, symObjAddr: 0x35E4, symBinAddr: 0x100006F7C, symSize: 0x1EC }
  - { offsetInCU: 0x5C15, offset: 0x5C15, size: 0x8, addend: 0x0, symName: __ZNSt3__16copy_nB8ue170006IPKcmPcEENS_9enable_ifIXsr37__has_random_access_iterator_categoryIT_EE5valueET1_E4typeES5_T0_S6_, symObjAddr: 0x4BB0, symBinAddr: 0x100008548, symSize: 0x44 }
  - { offsetInCU: 0x69BD, offset: 0x69BD, size: 0x8, addend: 0x0, symName: __ZNSt3__1lsB8ue170006INS_11char_traitsIcEEEERNS_13basic_ostreamIcT_EES6_PKc, symObjAddr: 0x1F4, symBinAddr: 0x100003B8C, symSize: 0x48 }
  - { offsetInCU: 0x6A03, offset: 0x6A03, size: 0x8, addend: 0x0, symName: __ZNSt3__14endlB8ue170006IcNS_11char_traitsIcEEEERNS_13basic_ostreamIT_T0_EES7_, symObjAddr: 0x268, symBinAddr: 0x100003C00, symSize: 0x58 }
  - { offsetInCU: 0x6A43, offset: 0x6A43, size: 0x8, addend: 0x0, symName: __ZNSt3__1lsB8ue170006IcNS_11char_traitsIcEENS_9allocatorIcEEEERNS_13basic_ostreamIT_T0_EES9_RKNS_12basic_stringIS6_S7_T1_EE, symObjAddr: 0x3D4, symBinAddr: 0x100003D6C, symSize: 0x4C }
  - { offsetInCU: 0x6A9B, offset: 0x6A9B, size: 0x8, addend: 0x0, symName: __ZNSt3__1lsB8ue170006INS_11char_traitsIcEEEERNS_13basic_ostreamIcT_EES6_c, symObjAddr: 0x570, symBinAddr: 0x100003F08, symSize: 0x34 }
  - { offsetInCU: 0x6AE1, offset: 0x6AE1, size: 0x8, addend: 0x0, symName: __ZNSt3__1neB8ue170006ERKNS_14__bit_iteratorINS_6vectorIbNS_9allocatorIbEEEELb0ELm0EEES7_, symObjAddr: 0xA38, symBinAddr: 0x1000043D0, symSize: 0x34 }
  - { offsetInCU: 0x6B1E, offset: 0x6B1E, size: 0x8, addend: 0x0, symName: __ZNSt3__13maxB8ue170006IiEERKT_S3_S3_, symObjAddr: 0xB5C, symBinAddr: 0x1000044F4, symSize: 0x2C }
  - { offsetInCU: 0x6B61, offset: 0x6B61, size: 0x8, addend: 0x0, symName: __ZNSt3__1plB8ue170006IcNS_11char_traitsIcEENS_9allocatorIcEEEENS_12basic_stringIT_T0_T1_EEOS9_SA_, symObjAddr: 0xB88, symBinAddr: 0x100004520, symSize: 0x40 }
  - { offsetInCU: 0x6BB9, offset: 0x6BB9, size: 0x8, addend: 0x0, symName: __ZNSt3__1plB8ue170006IcNS_11char_traitsIcEENS_9allocatorIcEEEENS_12basic_stringIT_T0_T1_EERKS9_PKS6_, symObjAddr: 0xBC8, symBinAddr: 0x100004560, symSize: 0x11C }
  - { offsetInCU: 0x6C5A, offset: 0x6C5A, size: 0x8, addend: 0x0, symName: __ZNSt3__1eqB8ue170006INS_5arrayIiLm7EEELm7EEEbRKNS1_IT_XT0_EEES6_, symObjAddr: 0x12AC, symBinAddr: 0x100004C44, symSize: 0x54 }
  - { offsetInCU: 0x6CAA, offset: 0x6CAA, size: 0x8, addend: 0x0, symName: __ZNSt3__14fillB8ue170006IPiiEEvT_S2_RKT0_, symObjAddr: 0x15BC, symBinAddr: 0x100004F54, symSize: 0x34 }
  - { offsetInCU: 0x6D00, offset: 0x6D00, size: 0x8, addend: 0x0, symName: __ZNSt3__13maxB8ue170006IiNS_6__lessIvvEEEERKT_S5_S5_T0_, symObjAddr: 0x3380, symBinAddr: 0x100006D18, symSize: 0x54 }
  - { offsetInCU: 0x6DD0, offset: 0x6DD0, size: 0x8, addend: 0x0, symName: __ZNSt3__118__constexpr_strlenB8ue170006EPKc, symObjAddr: 0x35B4, symBinAddr: 0x100006F4C, symSize: 0x24 }
  - { offsetInCU: 0x6DFC, offset: 0x6DFC, size: 0x8, addend: 0x0, symName: __ZNSt3__116__pad_and_outputB8ue170006IcNS_11char_traitsIcEEEENS_19ostreambuf_iteratorIT_T0_EES6_PKS4_S8_S8_RNS_8ios_baseES4_, symObjAddr: 0x37EC, symBinAddr: 0x100007184, symSize: 0x240 }
  - { offsetInCU: 0x6ECB, offset: 0x6ECB, size: 0x8, addend: 0x0, symName: __ZNSt3__112__to_addressB8ue170006IcEEPT_S2_, symObjAddr: 0x3BD4, symBinAddr: 0x10000756C, symSize: 0x14 }
  - { offsetInCU: 0x6F33, offset: 0x6F33, size: 0x8, addend: 0x0, symName: __ZNSt3__19use_facetB8ue170006INS_5ctypeIcEEEERKT_RKNS_6localeE, symObjAddr: 0x3E8C, symBinAddr: 0x100007824, symSize: 0x2C }
  - { offsetInCU: 0x7400, offset: 0x7400, size: 0x8, addend: 0x0, symName: __ZNSt3__112__to_addressB8ue170006IKcEEPT_S3_, symObjAddr: 0x3FEC, symBinAddr: 0x100007984, symSize: 0x14 }
  - { offsetInCU: 0x7468, offset: 0x7468, size: 0x8, addend: 0x0, symName: __ZNSt3__1eqB8ue170006ERKNS_14__bit_iteratorINS_6vectorIbNS_9allocatorIbEEEELb0ELm0EEES7_, symObjAddr: 0x41E0, symBinAddr: 0x100007B78, symSize: 0x64 }
  - { offsetInCU: 0x7691, offset: 0x7691, size: 0x8, addend: 0x0, symName: __ZNSt3__120__throw_length_errorB8ue170006EPKc, symObjAddr: 0x491C, symBinAddr: 0x1000082B4, symSize: 0x64 }
  - { offsetInCU: 0x76BB, offset: 0x76BB, size: 0x8, addend: 0x0, symName: __ZNSt3__117__libcpp_allocateB8ue170006Emm, symObjAddr: 0x4AA8, symBinAddr: 0x100008440, symSize: 0x60 }
  - { offsetInCU: 0x7715, offset: 0x7715, size: 0x8, addend: 0x0, symName: __ZNSt3__124__is_overaligned_for_newB8ue170006Em, symObjAddr: 0x4B08, symBinAddr: 0x1000084A0, symSize: 0x20 }
  - { offsetInCU: 0x7743, offset: 0x7743, size: 0x8, addend: 0x0, symName: __ZNSt3__121__libcpp_operator_newB8ue170006IJmSt11align_val_tEEEPvDpT_, symObjAddr: 0x4B28, symBinAddr: 0x1000084C0, symSize: 0x2C }
  - { offsetInCU: 0x7790, offset: 0x7790, size: 0x8, addend: 0x0, symName: __ZNSt3__121__libcpp_operator_newB8ue170006IJmEEEPvDpT_, symObjAddr: 0x4B54, symBinAddr: 0x1000084EC, symSize: 0x24 }
  - { offsetInCU: 0x77C9, offset: 0x77C9, size: 0x8, addend: 0x0, symName: __ZNSt3__14copyB8ue170006IPKcPcEET0_T_S5_S4_, symObjAddr: 0x4BF4, symBinAddr: 0x10000858C, symSize: 0x40 }
  - { offsetInCU: 0x7823, offset: 0x7823, size: 0x8, addend: 0x0, symName: __ZNSt3__16__copyB8ue170006INS_17_ClassicAlgPolicyEPKcS3_PcEENS_4pairIT0_T2_EES6_T1_S7_, symObjAddr: 0x4C34, symBinAddr: 0x1000085CC, symSize: 0x44 }
  - { offsetInCU: 0x788F, offset: 0x788F, size: 0x8, addend: 0x0, symName: __ZNSt3__123__dispatch_copy_or_moveB8ue170006INS_17_ClassicAlgPolicyENS_11__copy_loopIS1_EENS_14__copy_trivialEPKcS6_PcEENS_4pairIT2_T4_EES9_T3_SA_, symObjAddr: 0x4C78, symBinAddr: 0x100008610, symSize: 0x44 }
  - { offsetInCU: 0x790D, offset: 0x790D, size: 0x8, addend: 0x0, symName: __ZNSt3__121__unwrap_and_dispatchB8ue170006INS_10__overloadINS_11__copy_loopINS_17_ClassicAlgPolicyEEENS_14__copy_trivialEEEPKcS8_PcLi0EEENS_4pairIT0_T2_EESB_T1_SC_, symObjAddr: 0x4CBC, symBinAddr: 0x100008654, symSize: 0xB4 }
  - { offsetInCU: 0x799B, offset: 0x799B, size: 0x8, addend: 0x0, symName: __ZNSt3__114__unwrap_rangeB8ue170006IPKcS2_EENS_4pairIT0_S4_EET_S6_, symObjAddr: 0x4D70, symBinAddr: 0x100008708, symSize: 0x60 }
  - { offsetInCU: 0x7B30, offset: 0x7B30, size: 0x8, addend: 0x0, symName: __ZNSt3__113__unwrap_iterB8ue170006IPcNS_18__unwrap_iter_implIS1_Lb1EEELi0EEEDTclsrT0_8__unwrapclsr3stdE7declvalIT_EEEES5_, symObjAddr: 0x4E18, symBinAddr: 0x1000087B0, symSize: 0x24 }
  - { offsetInCU: 0x7B74, offset: 0x7B74, size: 0x8, addend: 0x0, symName: __ZNSt3__19make_pairB8ue170006IPKcPcEENS_4pairINS_18__unwrap_ref_decayIT_E4typeENS5_IT0_E4typeEEEOS6_OS9_, symObjAddr: 0x4E3C, symBinAddr: 0x1000087D4, symSize: 0x38 }
  - { offsetInCU: 0x7BC3, offset: 0x7BC3, size: 0x8, addend: 0x0, symName: __ZNSt3__114__rewrap_rangeB8ue170006IPKcS2_EET_S3_T0_, symObjAddr: 0x4E74, symBinAddr: 0x10000880C, symSize: 0x2C }
  - { offsetInCU: 0x7C0F, offset: 0x7C0F, size: 0x8, addend: 0x0, symName: __ZNSt3__113__rewrap_iterB8ue170006IPcS1_NS_18__unwrap_iter_implIS1_Lb1EEEEET_S4_T0_, symObjAddr: 0x4EA0, symBinAddr: 0x100008838, symSize: 0x3C }
  - { offsetInCU: 0x7C64, offset: 0x7C64, size: 0x8, addend: 0x0, symName: __ZNSt3__19make_pairB8ue170006IPKcS2_EENS_4pairINS_18__unwrap_ref_decayIT_E4typeENS4_IT0_E4typeEEEOS5_OS8_, symObjAddr: 0x4EDC, symBinAddr: 0x100008874, symSize: 0x38 }
  - { offsetInCU: 0x7CB3, offset: 0x7CB3, size: 0x8, addend: 0x0, symName: __ZNSt3__113__unwrap_iterB8ue170006IPKcNS_18__unwrap_iter_implIS2_Lb1EEELi0EEEDTclsrT0_8__unwrapclsr3stdE7declvalIT_EEEES6_, symObjAddr: 0x4F14, symBinAddr: 0x1000088AC, symSize: 0x24 }
  - { offsetInCU: 0x7E1E, offset: 0x7E1E, size: 0x8, addend: 0x0, symName: __ZNSt3__119__copy_trivial_implB8ue170006IKccEENS_4pairIPT_PT0_EES4_S4_S6_, symObjAddr: 0x4FCC, symBinAddr: 0x100008964, symSize: 0x78 }
  - { offsetInCU: 0x7E86, offset: 0x7E86, size: 0x8, addend: 0x0, symName: __ZNSt3__119__constexpr_memmoveB8ue170006IcKcLi0EEEPT_S3_PT0_NS_15__element_countE, symObjAddr: 0x5044, symBinAddr: 0x1000089DC, symSize: 0x64 }
  - { offsetInCU: 0x7EF4, offset: 0x7EF4, size: 0x8, addend: 0x0, symName: __ZNSt3__19make_pairB8ue170006IRPKcPcEENS_4pairINS_18__unwrap_ref_decayIT_E4typeENS6_IT0_E4typeEEEOS7_OSA_, symObjAddr: 0x50A8, symBinAddr: 0x100008A40, symSize: 0x38 }
  - { offsetInCU: 0x7F96, offset: 0x7F96, size: 0x8, addend: 0x0, symName: __ZNSt3__113__rewrap_iterB8ue170006IPKcS2_NS_18__unwrap_iter_implIS2_Lb1EEEEET_S5_T0_, symObjAddr: 0x51E4, symBinAddr: 0x100008B7C, symSize: 0x3C }
  - { offsetInCU: 0x7FEB, offset: 0x7FEB, size: 0x8, addend: 0x0, symName: __ZNSt3__16fill_nB8ue170006IPcmcEET_S2_T0_RKT1_, symObjAddr: 0x52B0, symBinAddr: 0x100008C48, symSize: 0x44 }
  - { offsetInCU: 0x804E, offset: 0x804E, size: 0x8, addend: 0x0, symName: __ZNSt3__18__fill_nB8ue170006IPcmcEET_S2_T0_RKT1_, symObjAddr: 0x52F4, symBinAddr: 0x100008C8C, symSize: 0x64 }
  - { offsetInCU: 0x80B1, offset: 0x80B1, size: 0x8, addend: 0x0, symName: __ZNSt3__121__convert_to_integralB8ue170006Em, symObjAddr: 0x5358, symBinAddr: 0x100008CF0, symSize: 0x14 }
  - { offsetInCU: 0x80DD, offset: 0x80DD, size: 0x8, addend: 0x0, symName: __ZNSt3__119__libcpp_deallocateB8ue170006EPvmm, symObjAddr: 0x57AC, symBinAddr: 0x100009144, symSize: 0x60 }
  - { offsetInCU: 0x8142, offset: 0x8142, size: 0x8, addend: 0x0, symName: __ZNSt3__127__do_deallocate_handle_sizeB8ue170006IJSt11align_val_tEEEvPvmDpT_, symObjAddr: 0x580C, symBinAddr: 0x1000091A4, symSize: 0x30 }
  - { offsetInCU: 0x8195, offset: 0x8195, size: 0x8, addend: 0x0, symName: __ZNSt3__127__do_deallocate_handle_sizeB8ue170006IJEEEvPvmDpT_, symObjAddr: 0x583C, symBinAddr: 0x1000091D4, symSize: 0x28 }
  - { offsetInCU: 0x81D3, offset: 0x81D3, size: 0x8, addend: 0x0, symName: __ZNSt3__124__libcpp_operator_deleteB8ue170006IJPvSt11align_val_tEEEvDpT_, symObjAddr: 0x5864, symBinAddr: 0x1000091FC, symSize: 0x2C }
  - { offsetInCU: 0x821C, offset: 0x821C, size: 0x8, addend: 0x0, symName: __ZNSt3__124__libcpp_operator_deleteB8ue170006IJPvEEEvDpT_, symObjAddr: 0x5890, symBinAddr: 0x100009228, symSize: 0x24 }
  - { offsetInCU: 0x8251, offset: 0x8251, size: 0x8, addend: 0x0, symName: __ZNSt3__15equalB8ue170006IPKNS_5arrayIiLm7EEES4_EEbT_S5_T0_, symObjAddr: 0x5924, symBinAddr: 0x1000092BC, symSize: 0x38 }
  - { offsetInCU: 0x82AB, offset: 0x82AB, size: 0x8, addend: 0x0, symName: __ZNSt3__15equalB8ue170006IPKNS_5arrayIiLm7EEES4_NS_10__equal_toEEEbT_S6_T0_T1_, symObjAddr: 0x59A8, symBinAddr: 0x100009340, symSize: 0x5C }
  - { offsetInCU: 0x831C, offset: 0x831C, size: 0x8, addend: 0x0, symName: __ZNSt3__117__equal_iter_implB8ue170006IPKNS_5arrayIiLm7EEES4_NS_10__equal_toEEEbT_S6_T0_RT1_, symObjAddr: 0x5A04, symBinAddr: 0x10000939C, symSize: 0xAC }
  - { offsetInCU: 0x838D, offset: 0x838D, size: 0x8, addend: 0x0, symName: __ZNSt3__113__unwrap_iterB8ue170006IPKNS_5arrayIiLm7EEENS_18__unwrap_iter_implIS4_Lb1EEELi0EEEDTclsrT0_8__unwrapclsr3stdE7declvalIT_EEEES8_, symObjAddr: 0x5AB0, symBinAddr: 0x100009448, symSize: 0x24 }
  - { offsetInCU: 0x840C, offset: 0x840C, size: 0x8, addend: 0x0, symName: __ZNSt3__1eqB8ue170006IiLm7EEEbRKNS_5arrayIT_XT0_EEES5_, symObjAddr: 0x5B08, symBinAddr: 0x1000094A0, symSize: 0x54 }
  - { offsetInCU: 0x845C, offset: 0x845C, size: 0x8, addend: 0x0, symName: __ZNSt3__15equalB8ue170006IPKiS2_EEbT_S3_T0_, symObjAddr: 0x5B5C, symBinAddr: 0x1000094F4, symSize: 0x38 }
  - { offsetInCU: 0x84B6, offset: 0x84B6, size: 0x8, addend: 0x0, symName: __ZNSt3__15equalB8ue170006IPKiS2_NS_10__equal_toEEEbT_S4_T0_T1_, symObjAddr: 0x5BE0, symBinAddr: 0x100009578, symSize: 0x5C }
  - { offsetInCU: 0x8527, offset: 0x8527, size: 0x8, addend: 0x0, symName: __ZNSt3__117__equal_iter_implB8ue170006IKiS1_NS_10__equal_toELi0EEEbPT_S4_PT0_RT1_, symObjAddr: 0x5C3C, symBinAddr: 0x1000095D4, symSize: 0x4C }
  - { offsetInCU: 0x859A, offset: 0x859A, size: 0x8, addend: 0x0, symName: __ZNSt3__113__unwrap_iterB8ue170006IPKiNS_18__unwrap_iter_implIS2_Lb1EEELi0EEEDTclsrT0_8__unwrapclsr3stdE7declvalIT_EEEES6_, symObjAddr: 0x5C88, symBinAddr: 0x100009620, symSize: 0x24 }
  - { offsetInCU: 0x85DE, offset: 0x85DE, size: 0x8, addend: 0x0, symName: __ZNSt3__124__constexpr_memcmp_equalB8ue170006IiiEEbPKT_PKT0_NS_15__element_countE, symObjAddr: 0x5CAC, symBinAddr: 0x100009644, symSize: 0x4C }
  - { offsetInCU: 0x8699, offset: 0x8699, size: 0x8, addend: 0x0, symName: __ZNSt3__112__to_addressB8ue170006IKiEEPT_S3_, symObjAddr: 0x5D1C, symBinAddr: 0x1000096B4, symSize: 0x14 }
  - { offsetInCU: 0x8721, offset: 0x8721, size: 0x8, addend: 0x0, symName: __ZNSt3__112__to_addressB8ue170006IKNS_5arrayIiLm7EEEEEPT_S5_, symObjAddr: 0x5D68, symBinAddr: 0x100009700, symSize: 0x14 }
  - { offsetInCU: 0x8756, offset: 0x8756, size: 0x8, addend: 0x0, symName: __ZNSt3__119__allocate_at_leastB8ue170006INS_9allocatorImEEEENS_19__allocation_resultINS_16allocator_traitsIT_E7pointerEEERS5_m, symObjAddr: 0x669C, symBinAddr: 0x10000A034, symSize: 0x40 }
  - { offsetInCU: 0x8799, offset: 0x8799, size: 0x8, addend: 0x0, symName: __ZNSt3__16__copyB8ue170006INS_17_ClassicAlgPolicyENS_14__bit_iteratorINS_6vectorIbNS_9allocatorIbEEEELb0ELm0EEES7_S7_EENS_4pairIT0_T2_EES9_T1_SA_, symObjAddr: 0x6758, symBinAddr: 0x10000A0F0, symSize: 0x88 }
  - { offsetInCU: 0x8808, offset: 0x8808, size: 0x8, addend: 0x0, symName: __ZNSt3__123__dispatch_copy_or_moveB8ue170006INS_17_ClassicAlgPolicyENS_11__copy_loopIS1_EENS_14__copy_trivialENS_14__bit_iteratorINS_6vectorIbNS_9allocatorIbEEEELb0ELm0EEESA_SA_EENS_4pairIT2_T4_EESC_T3_SD_, symObjAddr: 0x6814, symBinAddr: 0x10000A1AC, symSize: 0x88 }
  - { offsetInCU: 0x8889, offset: 0x8889, size: 0x8, addend: 0x0, symName: __ZNSt3__121__unwrap_and_dispatchB8ue170006INS_10__overloadINS_11__copy_loopINS_17_ClassicAlgPolicyEEENS_14__copy_trivialEEENS_14__bit_iteratorINS_6vectorIbNS_9allocatorIbEEEELb0ELm0EEESC_SC_Li0EEENS_4pairIT0_T2_EESE_T1_SF_, symObjAddr: 0x689C, symBinAddr: 0x10000A234, symSize: 0x15C }
  - { offsetInCU: 0x891C, offset: 0x891C, size: 0x8, addend: 0x0, symName: __ZNSt3__114__unwrap_rangeB8ue170006INS_14__bit_iteratorINS_6vectorIbNS_9allocatorIbEEEELb0ELm0EEES6_EENS_4pairIT0_S8_EET_SA_, symObjAddr: 0x69F8, symBinAddr: 0x10000A390, symSize: 0x8C }
  - { offsetInCU: 0x8AD8, offset: 0x8AD8, size: 0x8, addend: 0x0, symName: __ZNSt3__113__unwrap_iterB8ue170006INS_14__bit_iteratorINS_6vectorIbNS_9allocatorIbEEEELb0ELm0EEENS_18__unwrap_iter_implIS6_Lb0EEELi0EEEDTclsrT0_8__unwrapclsr3stdE7declvalIT_EEEESA_, symObjAddr: 0x6B3C, symBinAddr: 0x10000A4D4, symSize: 0x44 }
  - { offsetInCU: 0x8B1D, offset: 0x8B1D, size: 0x8, addend: 0x0, symName: __ZNSt3__19make_pairB8ue170006INS_14__bit_iteratorINS_6vectorIbNS_9allocatorIbEEEELb0ELm0EEES6_EENS_4pairINS_18__unwrap_ref_decayIT_E4typeENS8_IT0_E4typeEEEOS9_OSC_, symObjAddr: 0x6B80, symBinAddr: 0x10000A518, symSize: 0x40 }
  - { offsetInCU: 0x8B6C, offset: 0x8B6C, size: 0x8, addend: 0x0, symName: __ZNSt3__114__rewrap_rangeB8ue170006INS_14__bit_iteratorINS_6vectorIbNS_9allocatorIbEEEELb0ELm0EEES6_EET_S7_T0_, symObjAddr: 0x6BC0, symBinAddr: 0x10000A558, symSize: 0x6C }
  - { offsetInCU: 0x8BBA, offset: 0x8BBA, size: 0x8, addend: 0x0, symName: __ZNSt3__113__rewrap_iterB8ue170006INS_14__bit_iteratorINS_6vectorIbNS_9allocatorIbEEEELb0ELm0EEES6_NS_18__unwrap_iter_implIS6_Lb0EEEEET_S9_T0_, symObjAddr: 0x6C2C, symBinAddr: 0x10000A5C4, symSize: 0x74 }
  - { offsetInCU: 0x8C59, offset: 0x8C59, size: 0x8, addend: 0x0, symName: __ZNSt3__14swapB8ue170006IPmEENS_9enable_ifIXaasr21is_move_constructibleIT_EE5valuesr18is_move_assignableIS3_EE5valueEvE4typeERS3_S6_, symObjAddr: 0x6E08, symBinAddr: 0x10000A7A0, symSize: 0x3C }
  - { offsetInCU: 0x8CAA, offset: 0x8CAA, size: 0x8, addend: 0x0, symName: __ZNSt3__14swapB8ue170006ImEENS_9enable_ifIXaasr21is_move_constructibleIT_EE5valuesr18is_move_assignableIS2_EE5valueEvE4typeERS2_S5_, symObjAddr: 0x6E44, symBinAddr: 0x10000A7DC, symSize: 0x3C }
  - { offsetInCU: 0x8CFB, offset: 0x8CFB, size: 0x8, addend: 0x0, symName: __ZNSt3__116__swap_allocatorB8ue170006INS_9allocatorImEEEEvRT_S4_NS_17integral_constantIbLb0EEE, symObjAddr: 0x6E80, symBinAddr: 0x10000A818, symSize: 0x14 }
  - { offsetInCU: 0x8D3C, offset: 0x8D3C, size: 0x8, addend: 0x0, symName: __ZNSt3__13maxB8ue170006ImEERKT_S3_S3_, symObjAddr: 0x6E94, symBinAddr: 0x10000A82C, symSize: 0x2C }
  - { offsetInCU: 0x8D7F, offset: 0x8D7F, size: 0x8, addend: 0x0, symName: __ZNSt3__13maxB8ue170006ImNS_6__lessIvvEEEERKT_S5_S5_T0_, symObjAddr: 0x6EDC, symBinAddr: 0x10000A874, symSize: 0x54 }
  - { offsetInCU: 0x8DD9, offset: 0x8DD9, size: 0x8, addend: 0x0, symName: __ZNSt3__16__fillB8ue170006IPiiEEvT_S2_RKT0_NS_26random_access_iterator_tagE, symObjAddr: 0x6FC4, symBinAddr: 0x10000A95C, symSize: 0x44 }
  - { offsetInCU: 0x8E39, offset: 0x8E39, size: 0x8, addend: 0x0, symName: __ZNSt3__16fill_nB8ue170006IPiliEET_S2_T0_RKT1_, symObjAddr: 0x7008, symBinAddr: 0x10000A9A0, symSize: 0x44 }
  - { offsetInCU: 0x8E9C, offset: 0x8E9C, size: 0x8, addend: 0x0, symName: __ZNSt3__18__fill_nB8ue170006IPiliEET_S2_T0_RKT1_, symObjAddr: 0x704C, symBinAddr: 0x10000A9E4, symSize: 0x64 }
  - { offsetInCU: 0x8EFF, offset: 0x8EFF, size: 0x8, addend: 0x0, symName: __ZNSt3__121__convert_to_integralB8ue170006El, symObjAddr: 0x70B0, symBinAddr: 0x10000AA48, symSize: 0x14 }
  - { offsetInCU: 0x8F2B, offset: 0x8F2B, size: 0x8, addend: 0x0, symName: __ZNSt3__16__copyB8ue170006INS_17_ClassicAlgPolicyENS_14__bit_iteratorINS_6vectorIbNS_9allocatorIbEEEELb1ELm0EEES7_NS2_IS6_Lb0ELm0EEEEENS_4pairIT0_T2_EESA_T1_SB_, symObjAddr: 0x7344, symBinAddr: 0x10000ACDC, symSize: 0x7C }
  - { offsetInCU: 0x8F98, offset: 0x8F98, size: 0x8, addend: 0x0, symName: __ZNSt3__123__dispatch_copy_or_moveB8ue170006INS_17_ClassicAlgPolicyENS_11__copy_loopIS1_EENS_14__copy_trivialENS_14__bit_iteratorINS_6vectorIbNS_9allocatorIbEEEELb1ELm0EEESA_NS5_IS9_Lb0ELm0EEEEENS_4pairIT2_T4_EESD_T3_SE_, symObjAddr: 0x73C0, symBinAddr: 0x10000AD58, symSize: 0x7C }
  - { offsetInCU: 0x9017, offset: 0x9017, size: 0x8, addend: 0x0, symName: __ZNSt3__121__unwrap_and_dispatchB8ue170006INS_10__overloadINS_11__copy_loopINS_17_ClassicAlgPolicyEEENS_14__copy_trivialEEENS_14__bit_iteratorINS_6vectorIbNS_9allocatorIbEEEELb1ELm0EEESC_NS7_ISB_Lb0ELm0EEELi0EEENS_4pairIT0_T2_EESF_T1_SG_, symObjAddr: 0x743C, symBinAddr: 0x10000ADD4, symSize: 0x150 }
  - { offsetInCU: 0x90A8, offset: 0x90A8, size: 0x8, addend: 0x0, symName: __ZNSt3__114__unwrap_rangeB8ue170006INS_14__bit_iteratorINS_6vectorIbNS_9allocatorIbEEEELb1ELm0EEES6_EENS_4pairIT0_S8_EET_SA_, symObjAddr: 0x758C, symBinAddr: 0x10000AF24, symSize: 0x84 }
  - { offsetInCU: 0x91C8, offset: 0x91C8, size: 0x8, addend: 0x0, symName: __ZNSt3__19make_pairB8ue170006INS_14__bit_iteratorINS_6vectorIbNS_9allocatorIbEEEELb1ELm0EEENS1_IS5_Lb0ELm0EEEEENS_4pairINS_18__unwrap_ref_decayIT_E4typeENS9_IT0_E4typeEEEOSA_OSD_, symObjAddr: 0x76D4, symBinAddr: 0x10000B06C, symSize: 0x40 }
  - { offsetInCU: 0x9217, offset: 0x9217, size: 0x8, addend: 0x0, symName: __ZNSt3__114__rewrap_rangeB8ue170006INS_14__bit_iteratorINS_6vectorIbNS_9allocatorIbEEEELb1ELm0EEES6_EET_S7_T0_, symObjAddr: 0x7714, symBinAddr: 0x10000B0AC, symSize: 0x5C }
  - { offsetInCU: 0x9263, offset: 0x9263, size: 0x8, addend: 0x0, symName: __ZNSt3__19make_pairB8ue170006INS_14__bit_iteratorINS_6vectorIbNS_9allocatorIbEEEELb1ELm0EEES6_EENS_4pairINS_18__unwrap_ref_decayIT_E4typeENS8_IT0_E4typeEEEOS9_OSC_, symObjAddr: 0x7770, symBinAddr: 0x10000B108, symSize: 0x38 }
  - { offsetInCU: 0x92B2, offset: 0x92B2, size: 0x8, addend: 0x0, symName: __ZNSt3__113__unwrap_iterB8ue170006INS_14__bit_iteratorINS_6vectorIbNS_9allocatorIbEEEELb1ELm0EEENS_18__unwrap_iter_implIS6_Lb0EEELi0EEEDTclsrT0_8__unwrapclsr3stdE7declvalIT_EEEESA_, symObjAddr: 0x77A8, symBinAddr: 0x10000B140, symSize: 0x44 }
  - { offsetInCU: 0x9412, offset: 0x9412, size: 0x8, addend: 0x0, symName: __ZNSt3__1neB8ue170006ERKNS_14__bit_iteratorINS_6vectorIbNS_9allocatorIbEEEELb1ELm0EEES7_, symObjAddr: 0x7880, symBinAddr: 0x10000B218, symSize: 0x34 }
  - { offsetInCU: 0x944F, offset: 0x944F, size: 0x8, addend: 0x0, symName: __ZNSt3__1eqB8ue170006ERKNS_14__bit_iteratorINS_6vectorIbNS_9allocatorIbEEEELb1ELm0EEES7_, symObjAddr: 0x7980, symBinAddr: 0x10000B318, symSize: 0x64 }
  - { offsetInCU: 0x948C, offset: 0x948C, size: 0x8, addend: 0x0, symName: __ZNSt3__113__rewrap_iterB8ue170006INS_14__bit_iteratorINS_6vectorIbNS_9allocatorIbEEEELb1ELm0EEES6_NS_18__unwrap_iter_implIS6_Lb0EEEEET_S9_T0_, symObjAddr: 0x7AD0, symBinAddr: 0x10000B468, symSize: 0x74 }
  - { offsetInCU: 0x989D, offset: 0x989D, size: 0x8, addend: 0x0, symName: __ZSt28__throw_bad_array_new_lengthB8ue170006v, symObjAddr: 0x4A74, symBinAddr: 0x10000840C, symSize: 0x34 }
  - { offsetInCU: 0xC23E, offset: 0xC23E, size: 0x8, addend: 0x0, symName: __Z12convToBinaryNSt3__15arrayINS0_IiLm7EEELm7EEEb, symObjAddr: 0x0, symBinAddr: 0x100003998, symSize: 0x1F4 }
  - { offsetInCU: 0xC314, offset: 0xC314, size: 0x8, addend: 0x0, symName: __ZNSt3__113basic_ostreamIcNS_11char_traitsIcEEElsB8ue170006EPFRS3_S4_E, symObjAddr: 0x23C, symBinAddr: 0x100003BD4, symSize: 0x2C }
  - { offsetInCU: 0xC348, offset: 0xC348, size: 0x8, addend: 0x0, symName: __ZNKSt3__15arrayINS0_IiLm7EEELm7EE4sizeB8ue170006Ev, symObjAddr: 0x2C0, symBinAddr: 0x100003C58, symSize: 0x14 }
  - { offsetInCU: 0xC36E, offset: 0xC36E, size: 0x8, addend: 0x0, symName: __ZNSt3__15arrayINS0_IiLm7EEELm7EEixB8ue170006Em, symObjAddr: 0x2D4, symBinAddr: 0x100003C6C, symSize: 0x28 }
  - { offsetInCU: 0xC3A2, offset: 0xC3A2, size: 0x8, addend: 0x0, symName: __ZNKSt3__15arrayIiLm7EE4sizeB8ue170006Ev, symObjAddr: 0x2FC, symBinAddr: 0x100003C94, symSize: 0x14 }
  - { offsetInCU: 0xC3C8, offset: 0xC3C8, size: 0x8, addend: 0x0, symName: __ZNSt3__15arrayIiLm7EEixB8ue170006Em, symObjAddr: 0x310, symBinAddr: 0x100003CA8, symSize: 0x20 }
  - { offsetInCU: 0xC3FB, offset: 0xC3FB, size: 0x8, addend: 0x0, symName: __Z14setIndentationi, symObjAddr: 0x330, symBinAddr: 0x100003CC8, symSize: 0x1C }
  - { offsetInCU: 0xC423, offset: 0xC423, size: 0x8, addend: 0x0, symName: __Z6indentRNSt3__113basic_ostreamIcNS_11char_traitsIcEEEE, symObjAddr: 0x34C, symBinAddr: 0x100003CE4, symSize: 0x88 }
  - { offsetInCU: 0xC450, offset: 0xC450, size: 0x8, addend: 0x0, symName: __ZNSt3__112basic_stringIcNS_11char_traitsIcEENS_9allocatorIcEEEC1B8ue170006Emc, symObjAddr: 0x420, symBinAddr: 0x100003DB8, symSize: 0x3C }
  - { offsetInCU: 0xC497, offset: 0xC497, size: 0x8, addend: 0x0, symName: __ZlsRNSt3__113basic_ostreamIcNS_11char_traitsIcEEEENS_5arrayINS5_IiLm7EEELm7EEE, symObjAddr: 0x45C, symBinAddr: 0x100003DF4, symSize: 0x114 }
  - { offsetInCU: 0xC50B, offset: 0xC50B, size: 0x8, addend: 0x0, symName: __ZNKSt3__15arrayINS0_IiLm7EEELm7EEixB8ue170006Em, symObjAddr: 0x5A4, symBinAddr: 0x100003F3C, symSize: 0x28 }
  - { offsetInCU: 0xC53F, offset: 0xC53F, size: 0x8, addend: 0x0, symName: __ZNKSt3__15arrayIiLm7EEixB8ue170006Em, symObjAddr: 0x5CC, symBinAddr: 0x100003F64, symSize: 0x20 }
  - { offsetInCU: 0xC572, offset: 0xC572, size: 0x8, addend: 0x0, symName: __Z11convToArrayyb, symObjAddr: 0x5EC, symBinAddr: 0x100003F84, symSize: 0x12C }
  - { offsetInCU: 0xC5F4, offset: 0xC5F4, size: 0x8, addend: 0x0, symName: __Z12printResultsNSt3__112basic_stringIcNS_11char_traitsIcEENS_9allocatorIcEEEENS_6vectorIbNS3_IbEEEE, symObjAddr: 0x718, symBinAddr: 0x1000040B0, symSize: 0x2C0 }
  - { offsetInCU: 0xC6D8, offset: 0xC6D8, size: 0x8, addend: 0x0, symName: __ZNSt3__16vectorIbNS_9allocatorIbEEE5beginB8ue170006Ev, symObjAddr: 0x9D8, symBinAddr: 0x100004370, symSize: 0x30 }
  - { offsetInCU: 0xC6FE, offset: 0xC6FE, size: 0x8, addend: 0x0, symName: __ZNSt3__16vectorIbNS_9allocatorIbEEE3endB8ue170006Ev, symObjAddr: 0xA08, symBinAddr: 0x1000043A0, symSize: 0x30 }
  - { offsetInCU: 0xC724, offset: 0xC724, size: 0x8, addend: 0x0, symName: __ZNKSt3__114__bit_iteratorINS_6vectorIbNS_9allocatorIbEEEELb0ELm0EEdeB8ue170006Ev, symObjAddr: 0xA6C, symBinAddr: 0x100004404, symSize: 0x44 }
  - { offsetInCU: 0xC74A, offset: 0xC74A, size: 0x8, addend: 0x0, symName: __ZNKSt3__115__bit_referenceINS_6vectorIbNS_9allocatorIbEEEELb1EEcvbB8ue170006Ev, symObjAddr: 0xAB0, symBinAddr: 0x100004448, symSize: 0x2C }
  - { offsetInCU: 0xC770, offset: 0xC770, size: 0x8, addend: 0x0, symName: __ZNSt3__114__bit_iteratorINS_6vectorIbNS_9allocatorIbEEEELb0ELm0EEppB8ue170006Ev, symObjAddr: 0xADC, symBinAddr: 0x100004474, symSize: 0x5C }
  - { offsetInCU: 0xC796, offset: 0xC796, size: 0x8, addend: 0x0, symName: __ZNKSt3__112basic_stringIcNS_11char_traitsIcEENS_9allocatorIcEEE6lengthB8ue170006Ev, symObjAddr: 0xB38, symBinAddr: 0x1000044D0, symSize: 0x24 }
  - { offsetInCU: 0xC7BB, offset: 0xC7BB, size: 0x8, addend: 0x0, symName: __Z9randBoardi, symObjAddr: 0xCE4, symBinAddr: 0x10000467C, symSize: 0xD0 }
  - { offsetInCU: 0xC813, offset: 0xC813, size: 0x8, addend: 0x0, symName: __Z16testconvToBinaryb, symObjAddr: 0xDB4, symBinAddr: 0x10000474C, symSize: 0x4CC }
  - { offsetInCU: 0xC94C, offset: 0xC94C, size: 0x8, addend: 0x0, symName: __ZNSt3__16vectorIbNS_9allocatorIbEEEC1B8ue170006Ev, symObjAddr: 0x1280, symBinAddr: 0x100004C18, symSize: 0x2C }
  - { offsetInCU: 0xC978, offset: 0xC978, size: 0x8, addend: 0x0, symName: __ZNSt3__16vectorIbNS_9allocatorIbEEE9push_backERKb, symObjAddr: 0x1300, symBinAddr: 0x100004C98, symSize: 0xA4 }
  - { offsetInCU: 0xC9AE, offset: 0xC9AE, size: 0x8, addend: 0x0, symName: __Z6resultIbEbT_S0_ib, symObjAddr: 0x13A4, symBinAddr: 0x100004D3C, symSize: 0x1CC }
  - { offsetInCU: 0xCA1C, offset: 0xCA1C, size: 0x8, addend: 0x0, symName: __ZNSt3__15arrayINS0_IiLm7EEELm7EE5beginB8ue170006Ev, symObjAddr: 0x1570, symBinAddr: 0x100004F08, symSize: 0x24 }
  - { offsetInCU: 0xCA42, offset: 0xCA42, size: 0x8, addend: 0x0, symName: __ZNSt3__15arrayINS0_IiLm7EEELm7EE3endB8ue170006Ev, symObjAddr: 0x1594, symBinAddr: 0x100004F2C, symSize: 0x28 }
  - { offsetInCU: 0xCA68, offset: 0xCA68, size: 0x8, addend: 0x0, symName: __ZNSt3__15arrayIiLm7EE5beginB8ue170006Ev, symObjAddr: 0x15F0, symBinAddr: 0x100004F88, symSize: 0x24 }
  - { offsetInCU: 0xCA8E, offset: 0xCA8E, size: 0x8, addend: 0x0, symName: __ZNSt3__15arrayIiLm7EE3endB8ue170006Ev, symObjAddr: 0x1614, symBinAddr: 0x100004FAC, symSize: 0x28 }
  - { offsetInCU: 0xCAB3, offset: 0xCAB3, size: 0x8, addend: 0x0, symName: __Z5floorB8ue170006IiENSt3__19enable_ifIXsr3std11is_integralIT_EE5valueEdE4typeES2_, symObjAddr: 0x163C, symBinAddr: 0x100004FD4, symSize: 0x24 }
  - { offsetInCU: 0xCAF0, offset: 0xCAF0, size: 0x8, addend: 0x0, symName: __ZNSt3__112basic_stringIcNS_11char_traitsIcEENS_9allocatorIcEEEC1B8ue170006ILi0EEEPKc, symObjAddr: 0x1660, symBinAddr: 0x100004FF8, symSize: 0x34 }
  - { offsetInCU: 0xCB2F, offset: 0xCB2F, size: 0x8, addend: 0x0, symName: __ZNSt3__16vectorIbNS_9allocatorIbEEEC1ERKS3_, symObjAddr: 0x1694, symBinAddr: 0x10000502C, symSize: 0x34 }
  - { offsetInCU: 0xCB6A, offset: 0xCB6A, size: 0x8, addend: 0x0, symName: __ZNSt3__16vectorIbNS_9allocatorIbEEED1B8ue170006Ev, symObjAddr: 0x16C8, symBinAddr: 0x100005060, symSize: 0x2C }
  - { offsetInCU: 0xCB93, offset: 0xCB93, size: 0x8, addend: 0x0, symName: __Z11checkForWinNSt3__15arrayINS0_IiLm7EEELm7EEE, symObjAddr: 0x16F4, symBinAddr: 0x10000508C, symSize: 0x49C }
  - { offsetInCU: 0xCC76, offset: 0xCC76, size: 0x8, addend: 0x0, symName: __Z5isWinybbbb, symObjAddr: 0x1B90, symBinAddr: 0x100005528, symSize: 0x184 }
  - { offsetInCU: 0xCD13, offset: 0xCD13, size: 0x8, addend: 0x0, symName: __Z7testWinb, symObjAddr: 0x1D14, symBinAddr: 0x1000056AC, symSize: 0x284 }
  - { offsetInCU: 0xCDAA, offset: 0xCDAA, size: 0x8, addend: 0x0, symName: __Z10printArrayIiLm7ELm7EEvNSt3__15arrayINS1_IT_XT0_EEEXT1_EEE, symObjAddr: 0x1F98, symBinAddr: 0x100005930, symSize: 0xDC }
  - { offsetInCU: 0xCE28, offset: 0xCE28, size: 0x8, addend: 0x0, symName: __Z11isLegalMovei, symObjAddr: 0x2074, symBinAddr: 0x100005A0C, symSize: 0x3C }
  - { offsetInCU: 0xCE56, offset: 0xCE56, size: 0x8, addend: 0x0, symName: __Z16generatePositionv, symObjAddr: 0x20B0, symBinAddr: 0x100005A48, symSize: 0x224 }
  - { offsetInCU: 0xCEFB, offset: 0xCEFB, size: 0x8, addend: 0x0, symName: __Z7getMaskNSt3__15arrayINS0_IiLm7EEELm7EEE, symObjAddr: 0x22D4, symBinAddr: 0x100005C6C, symSize: 0x220 }
  - { offsetInCU: 0xCFAF, offset: 0xCFAF, size: 0x8, addend: 0x0, symName: __Z13getCurrPlayerNSt3__15arrayINS0_IiLm7EEELm7EEE, symObjAddr: 0x24F4, symBinAddr: 0x100005E8C, symSize: 0x108 }
  - { offsetInCU: 0xD029, offset: 0xD029, size: 0x8, addend: 0x0, symName: __Z11makeMoveOldiNSt3__15arrayINS0_IiLm7EEELm7EEE, symObjAddr: 0x25FC, symBinAddr: 0x100005F94, symSize: 0x264 }
  - { offsetInCU: 0xD0ED, offset: 0xD0ED, size: 0x8, addend: 0x0, symName: __Z8makeMovei, symObjAddr: 0x2860, symBinAddr: 0x1000061F8, symSize: 0x98 }
  - { offsetInCU: 0xD135, offset: 0xD135, size: 0x8, addend: 0x0, symName: __Z12testMakeMoveb, symObjAddr: 0x28F8, symBinAddr: 0x100006290, symSize: 0x350 }
  - { offsetInCU: 0xD1DC, offset: 0xD1DC, size: 0x8, addend: 0x0, symName: __Z6resultINSt3__15arrayINS1_IiLm7EEELm7EEEEbT_S4_ib, symObjAddr: 0x2C48, symBinAddr: 0x1000065E0, symSize: 0x1F8 }
  - { offsetInCU: 0xD24D, offset: 0xD24D, size: 0x8, addend: 0x0, symName: __Z8undoMovei, symObjAddr: 0x2E40, symBinAddr: 0x1000067D8, symSize: 0xAC }
  - { offsetInCU: 0xD286, offset: 0xD286, size: 0x8, addend: 0x0, symName: __Z12testUndoMoveb, symObjAddr: 0x2EEC, symBinAddr: 0x100006884, symSize: 0x3A8 }
  - { offsetInCU: 0xD37E, offset: 0xD37E, size: 0x8, addend: 0x0, symName: __Z7testAllv, symObjAddr: 0x3294, symBinAddr: 0x100006C2C, symSize: 0x84 }
  - { offsetInCU: 0xD399, offset: 0xD399, size: 0x8, addend: 0x0, symName: _main, symObjAddr: 0x3318, symBinAddr: 0x100006CB0, symSize: 0x68 }
  - { offsetInCU: 0xD3C3, offset: 0xD3C3, size: 0x8, addend: 0x0, symName: __ZNKSt3__16__lessIvvEclB8ue170006IiiEEbRKT_RKT0_, symObjAddr: 0x33D4, symBinAddr: 0x100006D6C, symSize: 0x34 }
  - { offsetInCU: 0xD417, offset: 0xD417, size: 0x8, addend: 0x0, symName: __ZNSt3__15arrayINS0_IiLm7EEELm7EE4dataB8ue170006Ev, symObjAddr: 0x3408, symBinAddr: 0x100006DA0, symSize: 0x14 }
  - { offsetInCU: 0xD43D, offset: 0xD43D, size: 0x8, addend: 0x0, symName: __ZNSt3__15arrayIiLm7EE4dataB8ue170006Ev, symObjAddr: 0x341C, symBinAddr: 0x100006DB4, symSize: 0x14 }
  - { offsetInCU: 0xD463, offset: 0xD463, size: 0x8, addend: 0x0, symName: __ZNSt3__112basic_stringIcNS_11char_traitsIcEENS_9allocatorIcEEEC2B8ue170006ILi0EEEPKc, symObjAddr: 0x3430, symBinAddr: 0x100006DC8, symSize: 0x58 }
  - { offsetInCU: 0xD4A7, offset: 0xD4A7, size: 0x8, addend: 0x0, symName: __ZNSt3__117__compressed_pairINS_12basic_stringIcNS_11char_traitsIcEENS_9allocatorIcEEE5__repES5_EC1B8ue170006INS_18__default_init_tagESA_EEOT_OT0_, symObjAddr: 0x3488, symBinAddr: 0x100006E20, symSize: 0x3C }
  - { offsetInCU: 0xD4FF, offset: 0xD4FF, size: 0x8, addend: 0x0, symName: __ZNSt3__111char_traitsIcE6lengthB8ue170006EPKc, symObjAddr: 0x34C4, symBinAddr: 0x100006E5C, symSize: 0x34 }
  - { offsetInCU: 0xD522, offset: 0xD522, size: 0x8, addend: 0x0, symName: __ZNSt3__117__compressed_pairINS_12basic_stringIcNS_11char_traitsIcEENS_9allocatorIcEEE5__repES5_EC2B8ue170006INS_18__default_init_tagESA_EEOT_OT0_, symObjAddr: 0x34F8, symBinAddr: 0x100006E90, symSize: 0x3C }
  - { offsetInCU: 0xD57A, offset: 0xD57A, size: 0x8, addend: 0x0, symName: __ZNSt3__122__compressed_pair_elemINS_12basic_stringIcNS_11char_traitsIcEENS_9allocatorIcEEE5__repELi0ELb0EEC2B8ue170006ENS_18__default_init_tagE, symObjAddr: 0x3534, symBinAddr: 0x100006ECC, symSize: 0x14 }
  - { offsetInCU: 0xD5AE, offset: 0xD5AE, size: 0x8, addend: 0x0, symName: __ZNSt3__122__compressed_pair_elemINS_9allocatorIcEELi1ELb1EEC2B8ue170006ENS_18__default_init_tagE, symObjAddr: 0x3548, symBinAddr: 0x100006EE0, symSize: 0x2C }
  - { offsetInCU: 0xD5E2, offset: 0xD5E2, size: 0x8, addend: 0x0, symName: __ZNSt3__19allocatorIcEC2B8ue170006Ev, symObjAddr: 0x3574, symBinAddr: 0x100006F0C, symSize: 0x2C }
  - { offsetInCU: 0xD60C, offset: 0xD60C, size: 0x8, addend: 0x0, symName: __ZNSt3__116__non_trivial_ifILb1ENS_9allocatorIcEEEC2B8ue170006Ev, symObjAddr: 0x35A0, symBinAddr: 0x100006F38, symSize: 0x14 }
  - { offsetInCU: 0xD654, offset: 0xD654, size: 0x8, addend: 0x0, symName: __ZNKSt3__113basic_ostreamIcNS_11char_traitsIcEEE6sentrycvbB8ue170006Ev, symObjAddr: 0x37D0, symBinAddr: 0x100007168, symSize: 0x1C }
  - { offsetInCU: 0xD67A, offset: 0xD67A, size: 0x8, addend: 0x0, symName: __ZNSt3__119ostreambuf_iteratorIcNS_11char_traitsIcEEEC1B8ue170006ERNS_13basic_ostreamIcS2_EE, symObjAddr: 0x3A2C, symBinAddr: 0x1000073C4, symSize: 0x34 }
  - { offsetInCU: 0xD6B2, offset: 0xD6B2, size: 0x8, addend: 0x0, symName: __ZNKSt3__18ios_base5flagsB8ue170006Ev, symObjAddr: 0x3A60, symBinAddr: 0x1000073F8, symSize: 0x18 }
  - { offsetInCU: 0xD6DA, offset: 0xD6DA, size: 0x8, addend: 0x0, symName: __ZNKSt3__19basic_iosIcNS_11char_traitsIcEEE4fillB8ue170006Ev, symObjAddr: 0x3A78, symBinAddr: 0x100007410, symSize: 0x64 }
  - { offsetInCU: 0xD702, offset: 0xD702, size: 0x8, addend: 0x0, symName: __ZNKSt3__119ostreambuf_iteratorIcNS_11char_traitsIcEEE6failedB8ue170006Ev, symObjAddr: 0x3ADC, symBinAddr: 0x100007474, symSize: 0x24 }
  - { offsetInCU: 0xD728, offset: 0xD728, size: 0x8, addend: 0x0, symName: __ZNSt3__19basic_iosIcNS_11char_traitsIcEEE8setstateB8ue170006Ej, symObjAddr: 0x3B00, symBinAddr: 0x100007498, symSize: 0x2C }
  - { offsetInCU: 0xD75D, offset: 0xD75D, size: 0x8, addend: 0x0, symName: __ZNKSt3__18ios_base5widthB8ue170006Ev, symObjAddr: 0x3B2C, symBinAddr: 0x1000074C4, symSize: 0x18 }
  - { offsetInCU: 0xD785, offset: 0xD785, size: 0x8, addend: 0x0, symName: __ZNSt3__115basic_streambufIcNS_11char_traitsIcEEE5sputnB8ue170006EPKcl, symObjAddr: 0x3B44, symBinAddr: 0x1000074DC, symSize: 0x3C }
  - { offsetInCU: 0xD7C7, offset: 0xD7C7, size: 0x8, addend: 0x0, symName: __ZNSt3__112basic_stringIcNS_11char_traitsIcEENS_9allocatorIcEEE4dataB8ue170006Ev, symObjAddr: 0x3B80, symBinAddr: 0x100007518, symSize: 0x28 }
  - { offsetInCU: 0xD7ED, offset: 0xD7ED, size: 0x8, addend: 0x0, symName: __ZNSt3__18ios_base5widthB8ue170006El, symObjAddr: 0x3BA8, symBinAddr: 0x100007540, symSize: 0x2C }
  - { offsetInCU: 0xD833, offset: 0xD833, size: 0x8, addend: 0x0, symName: __ZNSt3__112basic_stringIcNS_11char_traitsIcEENS_9allocatorIcEEE13__get_pointerB8ue170006Ev, symObjAddr: 0x3BE8, symBinAddr: 0x100007580, symSize: 0x54 }
  - { offsetInCU: 0xD859, offset: 0xD859, size: 0x8, addend: 0x0, symName: __ZNKSt3__112basic_stringIcNS_11char_traitsIcEENS_9allocatorIcEEE9__is_longB8ue170006Ev, symObjAddr: 0x3C3C, symBinAddr: 0x1000075D4, symSize: 0x38 }
  - { offsetInCU: 0xD87F, offset: 0xD87F, size: 0x8, addend: 0x0, symName: __ZNSt3__112basic_stringIcNS_11char_traitsIcEENS_9allocatorIcEEE18__get_long_pointerB8ue170006Ev, symObjAddr: 0x3C74, symBinAddr: 0x10000760C, symSize: 0x28 }
  - { offsetInCU: 0xD8A5, offset: 0xD8A5, size: 0x8, addend: 0x0, symName: __ZNSt3__112basic_stringIcNS_11char_traitsIcEENS_9allocatorIcEEE19__get_short_pointerB8ue170006Ev, symObjAddr: 0x3C9C, symBinAddr: 0x100007634, symSize: 0x28 }
  - { offsetInCU: 0xD8CB, offset: 0xD8CB, size: 0x8, addend: 0x0, symName: __ZNKSt3__117__compressed_pairINS_12basic_stringIcNS_11char_traitsIcEENS_9allocatorIcEEE5__repES5_E5firstB8ue170006Ev, symObjAddr: 0x3CC4, symBinAddr: 0x10000765C, symSize: 0x24 }
  - { offsetInCU: 0xD8F1, offset: 0xD8F1, size: 0x8, addend: 0x0, symName: __ZNKSt3__122__compressed_pair_elemINS_12basic_stringIcNS_11char_traitsIcEENS_9allocatorIcEEE5__repELi0ELb0EE5__getB8ue170006Ev, symObjAddr: 0x3CE8, symBinAddr: 0x100007680, symSize: 0x14 }
  - { offsetInCU: 0xD917, offset: 0xD917, size: 0x8, addend: 0x0, symName: __ZNSt3__117__compressed_pairINS_12basic_stringIcNS_11char_traitsIcEENS_9allocatorIcEEE5__repES5_E5firstB8ue170006Ev, symObjAddr: 0x3CFC, symBinAddr: 0x100007694, symSize: 0x24 }
  - { offsetInCU: 0xD93D, offset: 0xD93D, size: 0x8, addend: 0x0, symName: __ZNSt3__122__compressed_pair_elemINS_12basic_stringIcNS_11char_traitsIcEENS_9allocatorIcEEE5__repELi0ELb0EE5__getB8ue170006Ev, symObjAddr: 0x3D20, symBinAddr: 0x1000076B8, symSize: 0x14 }
  - { offsetInCU: 0xD963, offset: 0xD963, size: 0x8, addend: 0x0, symName: __ZNSt3__114pointer_traitsIPcE10pointer_toB8ue170006ERc, symObjAddr: 0x3D34, symBinAddr: 0x1000076CC, symSize: 0x14 }
  - { offsetInCU: 0xD986, offset: 0xD986, size: 0x8, addend: 0x0, symName: __ZNSt3__119ostreambuf_iteratorIcNS_11char_traitsIcEEEC2B8ue170006ERNS_13basic_ostreamIcS2_EE, symObjAddr: 0x3D48, symBinAddr: 0x1000076E0, symSize: 0x54 }
  - { offsetInCU: 0xD9BE, offset: 0xD9BE, size: 0x8, addend: 0x0, symName: __ZNKSt3__19basic_iosIcNS_11char_traitsIcEEE5rdbufB8ue170006Ev, symObjAddr: 0x3D9C, symBinAddr: 0x100007734, symSize: 0x24 }
  - { offsetInCU: 0xD9E6, offset: 0xD9E6, size: 0x8, addend: 0x0, symName: __ZNKSt3__18ios_base5rdbufB8ue170006Ev, symObjAddr: 0x3DC0, symBinAddr: 0x100007758, symSize: 0x18 }
  - { offsetInCU: 0xDA0C, offset: 0xDA0C, size: 0x8, addend: 0x0, symName: __ZNSt3__111char_traitsIcE11eq_int_typeB8ue170006Eii, symObjAddr: 0x3DD8, symBinAddr: 0x100007770, symSize: 0x28 }
  - { offsetInCU: 0xDA3F, offset: 0xDA3F, size: 0x8, addend: 0x0, symName: __ZNSt3__111char_traitsIcE3eofB8ue170006Ev, symObjAddr: 0x3E00, symBinAddr: 0x100007798, symSize: 0x8 }
  - { offsetInCU: 0xDA53, offset: 0xDA53, size: 0x8, addend: 0x0, symName: __ZNKSt3__19basic_iosIcNS_11char_traitsIcEEE5widenB8ue170006Ec, symObjAddr: 0x3E08, symBinAddr: 0x1000077A0, symSize: 0x84 }
  - { offsetInCU: 0xDABC, offset: 0xDABC, size: 0x8, addend: 0x0, symName: __ZNKSt3__15ctypeIcE5widenB8ue170006Ec, symObjAddr: 0x3EB8, symBinAddr: 0x100007850, symSize: 0x38 }
  - { offsetInCU: 0xDAF1, offset: 0xDAF1, size: 0x8, addend: 0x0, symName: __ZNSt3__18ios_base8setstateB8ue170006Ej, symObjAddr: 0x3EF0, symBinAddr: 0x100007888, symSize: 0x34 }
  - { offsetInCU: 0xDB28, offset: 0xDB28, size: 0x8, addend: 0x0, symName: __ZNSt3__112basic_stringIcNS_11char_traitsIcEENS_9allocatorIcEEEC2B8ue170006Emc, symObjAddr: 0x3F24, symBinAddr: 0x1000078BC, symSize: 0x4C }
  - { offsetInCU: 0xDB70, offset: 0xDB70, size: 0x8, addend: 0x0, symName: __ZNKSt3__112basic_stringIcNS_11char_traitsIcEENS_9allocatorIcEEE4dataB8ue170006Ev, symObjAddr: 0x3F70, symBinAddr: 0x100007908, symSize: 0x28 }
  - { offsetInCU: 0xDB96, offset: 0xDB96, size: 0x8, addend: 0x0, symName: __ZNKSt3__112basic_stringIcNS_11char_traitsIcEENS_9allocatorIcEEE4sizeB8ue170006Ev, symObjAddr: 0x3F98, symBinAddr: 0x100007930, symSize: 0x54 }
  - { offsetInCU: 0xDBBC, offset: 0xDBBC, size: 0x8, addend: 0x0, symName: __ZNKSt3__112basic_stringIcNS_11char_traitsIcEENS_9allocatorIcEEE13__get_pointerB8ue170006Ev, symObjAddr: 0x4000, symBinAddr: 0x100007998, symSize: 0x54 }
  - { offsetInCU: 0xDBE2, offset: 0xDBE2, size: 0x8, addend: 0x0, symName: __ZNKSt3__112basic_stringIcNS_11char_traitsIcEENS_9allocatorIcEEE18__get_long_pointerB8ue170006Ev, symObjAddr: 0x4054, symBinAddr: 0x1000079EC, symSize: 0x28 }
  - { offsetInCU: 0xDC08, offset: 0xDC08, size: 0x8, addend: 0x0, symName: __ZNKSt3__112basic_stringIcNS_11char_traitsIcEENS_9allocatorIcEEE19__get_short_pointerB8ue170006Ev, symObjAddr: 0x407C, symBinAddr: 0x100007A14, symSize: 0x28 }
  - { offsetInCU: 0xDC2E, offset: 0xDC2E, size: 0x8, addend: 0x0, symName: __ZNSt3__114pointer_traitsIPKcE10pointer_toB8ue170006ERS1_, symObjAddr: 0x40A4, symBinAddr: 0x100007A3C, symSize: 0x14 }
  - { offsetInCU: 0xDC51, offset: 0xDC51, size: 0x8, addend: 0x0, symName: __ZNKSt3__112basic_stringIcNS_11char_traitsIcEENS_9allocatorIcEEE15__get_long_sizeB8ue170006Ev, symObjAddr: 0x40B8, symBinAddr: 0x100007A50, symSize: 0x28 }
  - { offsetInCU: 0xDC77, offset: 0xDC77, size: 0x8, addend: 0x0, symName: __ZNKSt3__112basic_stringIcNS_11char_traitsIcEENS_9allocatorIcEEE16__get_short_sizeB8ue170006Ev, symObjAddr: 0x40E0, symBinAddr: 0x100007A78, symSize: 0x34 }
  - { offsetInCU: 0xDC9D, offset: 0xDC9D, size: 0x8, addend: 0x0, symName: __ZNSt3__16vectorIbNS_9allocatorIbEEE11__make_iterB8ue170006Em, symObjAddr: 0x4114, symBinAddr: 0x100007AAC, symSize: 0x64 }
  - { offsetInCU: 0xDCD2, offset: 0xDCD2, size: 0x8, addend: 0x0, symName: __ZNSt3__114__bit_iteratorINS_6vectorIbNS_9allocatorIbEEEELb0ELm0EEC1B8ue170006EPmj, symObjAddr: 0x4178, symBinAddr: 0x100007B10, symSize: 0x3C }
  - { offsetInCU: 0xDD1A, offset: 0xDD1A, size: 0x8, addend: 0x0, symName: __ZNSt3__114__bit_iteratorINS_6vectorIbNS_9allocatorIbEEEELb0ELm0EEC2B8ue170006EPmj, symObjAddr: 0x41B4, symBinAddr: 0x100007B4C, symSize: 0x2C }
  - { offsetInCU: 0xDD62, offset: 0xDD62, size: 0x8, addend: 0x0, symName: __ZNSt3__115__bit_referenceINS_6vectorIbNS_9allocatorIbEEEELb1EEC1B8ue170006EPmm, symObjAddr: 0x4244, symBinAddr: 0x100007BDC, symSize: 0x3C }
  - { offsetInCU: 0xDDA8, offset: 0xDDA8, size: 0x8, addend: 0x0, symName: __ZNSt3__115__bit_referenceINS_6vectorIbNS_9allocatorIbEEEELb1EEC2B8ue170006EPmm, symObjAddr: 0x4280, symBinAddr: 0x100007C18, symSize: 0x2C }
  - { offsetInCU: 0xDDF8, offset: 0xDDF8, size: 0x8, addend: 0x0, symName: __ZNSt3__116allocator_traitsINS_9allocatorIcEEE37select_on_container_copy_constructionB8ue170006IS2_vvEES2_RKS2_, symObjAddr: 0x42AC, symBinAddr: 0x100007C44, symSize: 0x10 }
  - { offsetInCU: 0xDE27, offset: 0xDE27, size: 0x8, addend: 0x0, symName: __ZNKSt3__112basic_stringIcNS_11char_traitsIcEENS_9allocatorIcEEE13get_allocatorB8ue170006Ev, symObjAddr: 0x42BC, symBinAddr: 0x100007C54, symSize: 0x24 }
  - { offsetInCU: 0xDE4D, offset: 0xDE4D, size: 0x8, addend: 0x0, symName: __ZNSt3__112basic_stringIcNS_11char_traitsIcEENS_9allocatorIcEEEC1B8ue170006ENS_24__uninitialized_size_tagEmRKS4_, symObjAddr: 0x42E0, symBinAddr: 0x100007C78, symSize: 0x3C }
  - { offsetInCU: 0xDEA1, offset: 0xDEA1, size: 0x8, addend: 0x0, symName: __ZNSt3__111char_traitsIcE4copyB8ue170006EPcPKcm, symObjAddr: 0x431C, symBinAddr: 0x100007CB4, symSize: 0x40 }
  - { offsetInCU: 0xDEE0, offset: 0xDEE0, size: 0x8, addend: 0x0, symName: __ZNSt3__111char_traitsIcE6assignB8ue170006EPcmc, symObjAddr: 0x435C, symBinAddr: 0x100007CF4, symSize: 0x44 }
  - { offsetInCU: 0xDF1F, offset: 0xDF1F, size: 0x8, addend: 0x0, symName: __ZNKSt3__112basic_stringIcNS_11char_traitsIcEENS_9allocatorIcEEE7__allocB8ue170006Ev, symObjAddr: 0x43A0, symBinAddr: 0x100007D38, symSize: 0x24 }
  - { offsetInCU: 0xDF45, offset: 0xDF45, size: 0x8, addend: 0x0, symName: __ZNKSt3__117__compressed_pairINS_12basic_stringIcNS_11char_traitsIcEENS_9allocatorIcEEE5__repES5_E6secondB8ue170006Ev, symObjAddr: 0x43C4, symBinAddr: 0x100007D5C, symSize: 0x24 }
  - { offsetInCU: 0xDF6B, offset: 0xDF6B, size: 0x8, addend: 0x0, symName: __ZNKSt3__122__compressed_pair_elemINS_9allocatorIcEELi1ELb1EE5__getB8ue170006Ev, symObjAddr: 0x43E8, symBinAddr: 0x100007D80, symSize: 0x14 }
  - { offsetInCU: 0xDF91, offset: 0xDF91, size: 0x8, addend: 0x0, symName: __ZNSt3__112basic_stringIcNS_11char_traitsIcEENS_9allocatorIcEEEC2B8ue170006ENS_24__uninitialized_size_tagEmRKS4_, symObjAddr: 0x43FC, symBinAddr: 0x100007D94, symSize: 0x110 }
  - { offsetInCU: 0xE011, offset: 0xE011, size: 0x8, addend: 0x0, symName: __ZNSt3__117__compressed_pairINS_12basic_stringIcNS_11char_traitsIcEENS_9allocatorIcEEE5__repES5_EC1B8ue170006INS_18__default_init_tagERKS5_EEOT_OT0_, symObjAddr: 0x450C, symBinAddr: 0x100007EA4, symSize: 0x3C }
  - { offsetInCU: 0xE069, offset: 0xE069, size: 0x8, addend: 0x0, symName: __ZNKSt3__112basic_stringIcNS_11char_traitsIcEENS_9allocatorIcEEE8max_sizeB8ue170006Ev, symObjAddr: 0x4548, symBinAddr: 0x100007EE0, symSize: 0xAC }
  - { offsetInCU: 0xE0BB, offset: 0xE0BB, size: 0x8, addend: 0x0, symName: __ZNKSt3__112basic_stringIcNS_11char_traitsIcEENS_9allocatorIcEEE20__throw_length_errorB8ue170006Ev, symObjAddr: 0x45F4, symBinAddr: 0x100007F8C, symSize: 0x1C }
  - { offsetInCU: 0xE0E1, offset: 0xE0E1, size: 0x8, addend: 0x0, symName: __ZNSt3__112basic_stringIcNS_11char_traitsIcEENS_9allocatorIcEEE13__fits_in_ssoB8ue170006Em, symObjAddr: 0x4610, symBinAddr: 0x100007FA8, symSize: 0x20 }
  - { offsetInCU: 0xE105, offset: 0xE105, size: 0x8, addend: 0x0, symName: __ZNSt3__112basic_stringIcNS_11char_traitsIcEENS_9allocatorIcEEE16__set_short_sizeB8ue170006Em, symObjAddr: 0x4630, symBinAddr: 0x100007FC8, symSize: 0x78 }
  - { offsetInCU: 0xE13A, offset: 0xE13A, size: 0x8, addend: 0x0, symName: __ZNSt3__112basic_stringIcNS_11char_traitsIcEENS_9allocatorIcEEE11__recommendB8ue170006Em, symObjAddr: 0x46A8, symBinAddr: 0x100008040, symSize: 0x84 }
  - { offsetInCU: 0xE16D, offset: 0xE16D, size: 0x8, addend: 0x0, symName: __ZNSt3__116allocator_traitsINS_9allocatorIcEEE8allocateB8ue170006ERS2_m, symObjAddr: 0x472C, symBinAddr: 0x1000080C4, symSize: 0x2C }
  - { offsetInCU: 0xE1A0, offset: 0xE1A0, size: 0x8, addend: 0x0, symName: __ZNSt3__112basic_stringIcNS_11char_traitsIcEENS_9allocatorIcEEE7__allocB8ue170006Ev, symObjAddr: 0x4758, symBinAddr: 0x1000080F0, symSize: 0x24 }
  - { offsetInCU: 0xE1C6, offset: 0xE1C6, size: 0x8, addend: 0x0, symName: __ZNSt3__112basic_stringIcNS_11char_traitsIcEENS_9allocatorIcEEE16__begin_lifetimeB8ue170006EPcm, symObjAddr: 0x477C, symBinAddr: 0x100008114, symSize: 0x14 }
  - { offsetInCU: 0xE1F9, offset: 0xE1F9, size: 0x8, addend: 0x0, symName: __ZNSt3__112basic_stringIcNS_11char_traitsIcEENS_9allocatorIcEEE14__set_long_capB8ue170006Em, symObjAddr: 0x4790, symBinAddr: 0x100008128, symSize: 0x70 }
  - { offsetInCU: 0xE22E, offset: 0xE22E, size: 0x8, addend: 0x0, symName: __ZNSt3__112basic_stringIcNS_11char_traitsIcEENS_9allocatorIcEEE18__set_long_pointerB8ue170006EPc, symObjAddr: 0x4800, symBinAddr: 0x100008198, symSize: 0x38 }
  - { offsetInCU: 0xE263, offset: 0xE263, size: 0x8, addend: 0x0, symName: __ZNSt3__112basic_stringIcNS_11char_traitsIcEENS_9allocatorIcEEE15__set_long_sizeB8ue170006Em, symObjAddr: 0x4838, symBinAddr: 0x1000081D0, symSize: 0x38 }
  - { offsetInCU: 0xE298, offset: 0xE298, size: 0x8, addend: 0x0, symName: __ZNSt3__117__compressed_pairINS_12basic_stringIcNS_11char_traitsIcEENS_9allocatorIcEEE5__repES5_EC2B8ue170006INS_18__default_init_tagERKS5_EEOT_OT0_, symObjAddr: 0x4870, symBinAddr: 0x100008208, symSize: 0x40 }
  - { offsetInCU: 0xE2F0, offset: 0xE2F0, size: 0x8, addend: 0x0, symName: __ZNSt3__122__compressed_pair_elemINS_9allocatorIcEELi1ELb1EEC2B8ue170006IRKS2_vEEOT_, symObjAddr: 0x48B0, symBinAddr: 0x100008248, symSize: 0x18 }
  - { offsetInCU: 0xE332, offset: 0xE332, size: 0x8, addend: 0x0, symName: __ZNSt3__116allocator_traitsINS_9allocatorIcEEE8max_sizeB8ue170006IS2_vEEmRKS2_, symObjAddr: 0x48C8, symBinAddr: 0x100008260, symSize: 0x24 }
  - { offsetInCU: 0xE360, offset: 0xE360, size: 0x8, addend: 0x0, symName: __ZNSt3__114numeric_limitsImE3maxB8ue170006Ev, symObjAddr: 0x48EC, symBinAddr: 0x100008284, symSize: 0x14 }
  - { offsetInCU: 0xE374, offset: 0xE374, size: 0x8, addend: 0x0, symName: __ZNKSt3__19allocatorIcE8max_sizeB8ue170006Ev, symObjAddr: 0x4900, symBinAddr: 0x100008298, symSize: 0x14 }
  - { offsetInCU: 0xE39A, offset: 0xE39A, size: 0x8, addend: 0x0, symName: __ZNSt3__123__libcpp_numeric_limitsImLb1EE3maxB8ue170006Ev, symObjAddr: 0x4914, symBinAddr: 0x1000082AC, symSize: 0x8 }
  - { offsetInCU: 0xE3AE, offset: 0xE3AE, size: 0x8, addend: 0x0, symName: __ZNSt12length_errorC1B8ue170006EPKc, symObjAddr: 0x4980, symBinAddr: 0x100008318, symSize: 0x34 }
  - { offsetInCU: 0xE3E6, offset: 0xE3E6, size: 0x8, addend: 0x0, symName: __ZNSt12length_errorC2B8ue170006EPKc, symObjAddr: 0x49B4, symBinAddr: 0x10000834C, symSize: 0x4C }
  - { offsetInCU: 0xE41E, offset: 0xE41E, size: 0x8, addend: 0x0, symName: __ZNSt3__112basic_stringIcNS_11char_traitsIcEENS_9allocatorIcEEE10__align_itB8ue170006ILm16EEEmm, symObjAddr: 0x4A00, symBinAddr: 0x100008398, symSize: 0x1C }
  - { offsetInCU: 0xE44C, offset: 0xE44C, size: 0x8, addend: 0x0, symName: __ZNSt3__19allocatorIcE8allocateB8ue170006Em, symObjAddr: 0x4A1C, symBinAddr: 0x1000083B4, symSize: 0x58 }
  - { offsetInCU: 0xE480, offset: 0xE480, size: 0x8, addend: 0x0, symName: __ZNSt3__117__compressed_pairINS_12basic_stringIcNS_11char_traitsIcEENS_9allocatorIcEEE5__repES5_E6secondB8ue170006Ev, symObjAddr: 0x4B78, symBinAddr: 0x100008510, symSize: 0x24 }
  - { offsetInCU: 0xE4A6, offset: 0xE4A6, size: 0x8, addend: 0x0, symName: __ZNSt3__122__compressed_pair_elemINS_9allocatorIcEELi1ELb1EE5__getB8ue170006Ev, symObjAddr: 0x4B9C, symBinAddr: 0x100008534, symSize: 0x14 }
  - { offsetInCU: 0xE4EF, offset: 0xE4EF, size: 0x8, addend: 0x0, symName: __ZNKSt3__114__copy_trivialclB8ue170006IKccLi0EEENS_4pairIPT_PT0_EES5_S5_S7_, symObjAddr: 0x4DD0, symBinAddr: 0x100008768, symSize: 0x48 }
  - { offsetInCU: 0xE575, offset: 0xE575, size: 0x8, addend: 0x0, symName: __ZNSt3__14pairIPKcS2_EC1B8ue170006IS2_S2_LPv0EEEOT_OT0_, symObjAddr: 0x4F38, symBinAddr: 0x1000088D0, symSize: 0x3C }
  - { offsetInCU: 0xE5D3, offset: 0xE5D3, size: 0x8, addend: 0x0, symName: __ZNSt3__14pairIPKcS2_EC2B8ue170006IS2_S2_LPv0EEEOT_OT0_, symObjAddr: 0x4F74, symBinAddr: 0x10000890C, symSize: 0x34 }
  - { offsetInCU: 0xE631, offset: 0xE631, size: 0x8, addend: 0x0, symName: __ZNSt3__118__unwrap_iter_implIPKcLb1EE8__unwrapB8ue170006ES2_, symObjAddr: 0x4FA8, symBinAddr: 0x100008940, symSize: 0x24 }
  - { offsetInCU: 0xE65E, offset: 0xE65E, size: 0x8, addend: 0x0, symName: __ZNSt3__14pairIPKcPcEC1B8ue170006IRS2_S3_LPv0EEEOT_OT0_, symObjAddr: 0x50E0, symBinAddr: 0x100008A78, symSize: 0x3C }
  - { offsetInCU: 0xE6BC, offset: 0xE6BC, size: 0x8, addend: 0x0, symName: __ZNSt3__14pairIPKcPcEC2B8ue170006IRS2_S3_LPv0EEEOT_OT0_, symObjAddr: 0x511C, symBinAddr: 0x100008AB4, symSize: 0x34 }
  - { offsetInCU: 0xE71A, offset: 0xE71A, size: 0x8, addend: 0x0, symName: __ZNSt3__118__unwrap_iter_implIPcLb1EE8__unwrapB8ue170006ES1_, symObjAddr: 0x5150, symBinAddr: 0x100008AE8, symSize: 0x24 }
  - { offsetInCU: 0xE73D, offset: 0xE73D, size: 0x8, addend: 0x0, symName: __ZNSt3__14pairIPKcPcEC1B8ue170006IS2_S3_LPv0EEEOT_OT0_, symObjAddr: 0x5174, symBinAddr: 0x100008B0C, symSize: 0x3C }
  - { offsetInCU: 0xE79B, offset: 0xE79B, size: 0x8, addend: 0x0, symName: __ZNSt3__14pairIPKcPcEC2B8ue170006IS2_S3_LPv0EEEOT_OT0_, symObjAddr: 0x51B0, symBinAddr: 0x100008B48, symSize: 0x34 }
  - { offsetInCU: 0xE7F9, offset: 0xE7F9, size: 0x8, addend: 0x0, symName: __ZNSt3__118__unwrap_iter_implIPKcLb1EE8__rewrapB8ue170006ES2_S2_, symObjAddr: 0x5220, symBinAddr: 0x100008BB8, symSize: 0x48 }
  - { offsetInCU: 0xE82A, offset: 0xE82A, size: 0x8, addend: 0x0, symName: __ZNSt3__118__unwrap_iter_implIPcLb1EE8__rewrapB8ue170006ES1_S1_, symObjAddr: 0x5268, symBinAddr: 0x100008C00, symSize: 0x48 }
  - { offsetInCU: 0xE85B, offset: 0xE85B, size: 0x8, addend: 0x0, symName: __ZNSt3__112basic_stringIcNS_11char_traitsIcEENS_9allocatorIcEEE6appendB8ue170006ERKS5_, symObjAddr: 0x536C, symBinAddr: 0x100008D04, symSize: 0x4C }
  - { offsetInCU: 0xE890, offset: 0xE890, size: 0x8, addend: 0x0, symName: __ZNSt3__112basic_stringIcNS_11char_traitsIcEENS_9allocatorIcEEEC1B8ue170006EOS5_, symObjAddr: 0x53B8, symBinAddr: 0x100008D50, symSize: 0x34 }
  - { offsetInCU: 0xE8C9, offset: 0xE8C9, size: 0x8, addend: 0x0, symName: __ZNSt3__112basic_stringIcNS_11char_traitsIcEENS_9allocatorIcEEEC2B8ue170006EOS5_, symObjAddr: 0x53EC, symBinAddr: 0x100008D84, symSize: 0x50 }
  - { offsetInCU: 0xE902, offset: 0xE902, size: 0x8, addend: 0x0, symName: __ZNSt3__112basic_stringIcNS_11char_traitsIcEENS_9allocatorIcEEE14__default_initB8ue170006Ev, symObjAddr: 0x543C, symBinAddr: 0x100008DD4, symSize: 0x40 }
  - { offsetInCU: 0xE928, offset: 0xE928, size: 0x8, addend: 0x0, symName: __ZNSt3__16vectorIbNS_9allocatorIbEEEC2B8ue170006Ev, symObjAddr: 0x547C, symBinAddr: 0x100008E14, symSize: 0x4C }
  - { offsetInCU: 0xE959, offset: 0xE959, size: 0x8, addend: 0x0, symName: __ZNSt3__117__compressed_pairImNS_9allocatorImEEEC1B8ue170006IiNS_18__default_init_tagEEEOT_OT0_, symObjAddr: 0x54C8, symBinAddr: 0x100008E60, symSize: 0x3C }
  - { offsetInCU: 0xE9B1, offset: 0xE9B1, size: 0x8, addend: 0x0, symName: __ZNSt3__117__compressed_pairImNS_9allocatorImEEEC2B8ue170006IiNS_18__default_init_tagEEEOT_OT0_, symObjAddr: 0x5504, symBinAddr: 0x100008E9C, symSize: 0x40 }
  - { offsetInCU: 0xEA09, offset: 0xEA09, size: 0x8, addend: 0x0, symName: __ZNSt3__122__compressed_pair_elemImLi0ELb0EEC2B8ue170006IivEEOT_, symObjAddr: 0x5544, symBinAddr: 0x100008EDC, symSize: 0x24 }
  - { offsetInCU: 0xEA4B, offset: 0xEA4B, size: 0x8, addend: 0x0, symName: __ZNSt3__122__compressed_pair_elemINS_9allocatorImEELi1ELb1EEC2B8ue170006ENS_18__default_init_tagE, symObjAddr: 0x5568, symBinAddr: 0x100008F00, symSize: 0x2C }
  - { offsetInCU: 0xEA7F, offset: 0xEA7F, size: 0x8, addend: 0x0, symName: __ZNSt3__19allocatorImEC2B8ue170006Ev, symObjAddr: 0x5594, symBinAddr: 0x100008F2C, symSize: 0x2C }
  - { offsetInCU: 0xEAA9, offset: 0xEAA9, size: 0x8, addend: 0x0, symName: __ZNSt3__116__non_trivial_ifILb1ENS_9allocatorImEEEC2B8ue170006Ev, symObjAddr: 0x55C0, symBinAddr: 0x100008F58, symSize: 0x14 }
  - { offsetInCU: 0xEAD3, offset: 0xEAD3, size: 0x8, addend: 0x0, symName: __ZNSt3__16vectorIbNS_9allocatorIbEEED2B8ue170006Ev, symObjAddr: 0x55D4, symBinAddr: 0x100008F6C, symSize: 0x44 }
  - { offsetInCU: 0xEAFD, offset: 0xEAFD, size: 0x8, addend: 0x0, symName: __ZNSt3__16vectorIbNS_9allocatorIbEEE16__destroy_vectorC1B8ue170006ERS3_, symObjAddr: 0x5618, symBinAddr: 0x100008FB0, symSize: 0x34 }
  - { offsetInCU: 0xEB36, offset: 0xEB36, size: 0x8, addend: 0x0, symName: __ZNSt3__16vectorIbNS_9allocatorIbEEE16__destroy_vectorclB8ue170006Ev, symObjAddr: 0x564C, symBinAddr: 0x100008FE4, symSize: 0x7C }
  - { offsetInCU: 0xEB5C, offset: 0xEB5C, size: 0x8, addend: 0x0, symName: __ZNSt3__16vectorIbNS_9allocatorIbEEE16__destroy_vectorC2B8ue170006ERS3_, symObjAddr: 0x56C8, symBinAddr: 0x100009060, symSize: 0x20 }
  - { offsetInCU: 0xEB95, offset: 0xEB95, size: 0x8, addend: 0x0, symName: __ZNSt3__116allocator_traitsINS_9allocatorImEEE10deallocateB8ue170006ERS2_Pmm, symObjAddr: 0x56E8, symBinAddr: 0x100009080, symSize: 0x34 }
  - { offsetInCU: 0xEBD7, offset: 0xEBD7, size: 0x8, addend: 0x0, symName: __ZNSt3__16vectorIbNS_9allocatorIbEEE7__allocB8ue170006Ev, symObjAddr: 0x571C, symBinAddr: 0x1000090B4, symSize: 0x28 }
  - { offsetInCU: 0xEBFD, offset: 0xEBFD, size: 0x8, addend: 0x0, symName: __ZNSt3__16vectorIbNS_9allocatorIbEEE5__capB8ue170006Ev, symObjAddr: 0x5744, symBinAddr: 0x1000090DC, symSize: 0x28 }
  - { offsetInCU: 0xEC23, offset: 0xEC23, size: 0x8, addend: 0x0, symName: __ZNSt3__19allocatorImE10deallocateB8ue170006EPmm, symObjAddr: 0x576C, symBinAddr: 0x100009104, symSize: 0x40 }
  - { offsetInCU: 0xEC65, offset: 0xEC65, size: 0x8, addend: 0x0, symName: __ZNSt3__117__compressed_pairImNS_9allocatorImEEE6secondB8ue170006Ev, symObjAddr: 0x58B4, symBinAddr: 0x10000924C, symSize: 0x24 }
  - { offsetInCU: 0xEC8B, offset: 0xEC8B, size: 0x8, addend: 0x0, symName: __ZNSt3__122__compressed_pair_elemINS_9allocatorImEELi1ELb1EE5__getB8ue170006Ev, symObjAddr: 0x58D8, symBinAddr: 0x100009270, symSize: 0x14 }
  - { offsetInCU: 0xECB1, offset: 0xECB1, size: 0x8, addend: 0x0, symName: __ZNSt3__117__compressed_pairImNS_9allocatorImEEE5firstB8ue170006Ev, symObjAddr: 0x58EC, symBinAddr: 0x100009284, symSize: 0x24 }
  - { offsetInCU: 0xECD7, offset: 0xECD7, size: 0x8, addend: 0x0, symName: __ZNSt3__122__compressed_pair_elemImLi0ELb0EE5__getB8ue170006Ev, symObjAddr: 0x5910, symBinAddr: 0x1000092A8, symSize: 0x14 }
  - { offsetInCU: 0xECFD, offset: 0xECFD, size: 0x8, addend: 0x0, symName: __ZNKSt3__15arrayINS0_IiLm7EEELm7EE5beginB8ue170006Ev, symObjAddr: 0x595C, symBinAddr: 0x1000092F4, symSize: 0x24 }
  - { offsetInCU: 0xED23, offset: 0xED23, size: 0x8, addend: 0x0, symName: __ZNKSt3__15arrayINS0_IiLm7EEELm7EE3endB8ue170006Ev, symObjAddr: 0x5980, symBinAddr: 0x100009318, symSize: 0x28 }
  - { offsetInCU: 0xED58, offset: 0xED58, size: 0x8, addend: 0x0, symName: __ZNKSt3__110__equal_toclB8ue170006INS_5arrayIiLm7EEES3_EEbRKT_RKT0_, symObjAddr: 0x5AD4, symBinAddr: 0x10000946C, symSize: 0x34 }
  - { offsetInCU: 0xEDAC, offset: 0xEDAC, size: 0x8, addend: 0x0, symName: __ZNKSt3__15arrayIiLm7EE5beginB8ue170006Ev, symObjAddr: 0x5B94, symBinAddr: 0x10000952C, symSize: 0x24 }
  - { offsetInCU: 0xEDD2, offset: 0xEDD2, size: 0x8, addend: 0x0, symName: __ZNKSt3__15arrayIiLm7EE3endB8ue170006Ev, symObjAddr: 0x5BB8, symBinAddr: 0x100009550, symSize: 0x28 }
  - { offsetInCU: 0xEDFD, offset: 0xEDFD, size: 0x8, addend: 0x0, symName: __ZNSt3__118__unwrap_iter_implIPKiLb1EE8__unwrapB8ue170006ES2_, symObjAddr: 0x5CF8, symBinAddr: 0x100009690, symSize: 0x24 }
  - { offsetInCU: 0xEE20, offset: 0xEE20, size: 0x8, addend: 0x0, symName: __ZNKSt3__15arrayIiLm7EE4dataB8ue170006Ev, symObjAddr: 0x5D30, symBinAddr: 0x1000096C8, symSize: 0x14 }
  - { offsetInCU: 0xEE4B, offset: 0xEE4B, size: 0x8, addend: 0x0, symName: __ZNSt3__118__unwrap_iter_implIPKNS_5arrayIiLm7EEELb1EE8__unwrapB8ue170006ES4_, symObjAddr: 0x5D44, symBinAddr: 0x1000096DC, symSize: 0x24 }
  - { offsetInCU: 0xEE6E, offset: 0xEE6E, size: 0x8, addend: 0x0, symName: __ZNKSt3__15arrayINS0_IiLm7EEELm7EE4dataB8ue170006Ev, symObjAddr: 0x5D7C, symBinAddr: 0x100009714, symSize: 0x14 }
  - { offsetInCU: 0xEE94, offset: 0xEE94, size: 0x8, addend: 0x0, symName: __ZNKSt3__16vectorIbNS_9allocatorIbEEE8capacityB8ue170006Ev, symObjAddr: 0x5D90, symBinAddr: 0x100009728, symSize: 0x2C }
  - { offsetInCU: 0xEEBA, offset: 0xEEBA, size: 0x8, addend: 0x0, symName: __ZNSt3__16vectorIbNS_9allocatorIbEEE7reserveEm, symObjAddr: 0x5DBC, symBinAddr: 0x100009754, symSize: 0x118 }
  - { offsetInCU: 0xEF06, offset: 0xEF06, size: 0x8, addend: 0x0, symName: __ZNKSt3__16vectorIbNS_9allocatorIbEEE11__recommendB8ue170006Em, symObjAddr: 0x5ED4, symBinAddr: 0x10000986C, symSize: 0xCC }
  - { offsetInCU: 0xEF5B, offset: 0xEF5B, size: 0x8, addend: 0x0, symName: __ZNSt3__16vectorIbNS_9allocatorIbEEE4backB8ue170006Ev, symObjAddr: 0x5FA0, symBinAddr: 0x100009938, symSize: 0x3C }
  - { offsetInCU: 0xEF81, offset: 0xEF81, size: 0x8, addend: 0x0, symName: __ZNSt3__115__bit_referenceINS_6vectorIbNS_9allocatorIbEEEELb1EEaSB8ue170006Eb, symObjAddr: 0x5FDC, symBinAddr: 0x100009974, symSize: 0x6C }
  - { offsetInCU: 0xEFB5, offset: 0xEFB5, size: 0x8, addend: 0x0, symName: __ZNSt3__16vectorIbNS_9allocatorIbEEE26__internal_cap_to_externalB8ue170006Em, symObjAddr: 0x6048, symBinAddr: 0x1000099E0, symSize: 0x18 }
  - { offsetInCU: 0xEFD9, offset: 0xEFD9, size: 0x8, addend: 0x0, symName: __ZNKSt3__16vectorIbNS_9allocatorIbEEE5__capB8ue170006Ev, symObjAddr: 0x6060, symBinAddr: 0x1000099F8, symSize: 0x28 }
  - { offsetInCU: 0xEFFF, offset: 0xEFFF, size: 0x8, addend: 0x0, symName: __ZNKSt3__117__compressed_pairImNS_9allocatorImEEE5firstB8ue170006Ev, symObjAddr: 0x6088, symBinAddr: 0x100009A20, symSize: 0x24 }
  - { offsetInCU: 0xF025, offset: 0xF025, size: 0x8, addend: 0x0, symName: __ZNKSt3__122__compressed_pair_elemImLi0ELb0EE5__getB8ue170006Ev, symObjAddr: 0x60AC, symBinAddr: 0x100009A44, symSize: 0x14 }
  - { offsetInCU: 0xF04B, offset: 0xF04B, size: 0x8, addend: 0x0, symName: __ZNKSt3__16vectorIbNS_9allocatorIbEEE8max_sizeEv, symObjAddr: 0x60C0, symBinAddr: 0x100009A58, symSize: 0x7C }
  - { offsetInCU: 0xF091, offset: 0xF091, size: 0x8, addend: 0x0, symName: __ZNKSt3__16vectorIbNS_9allocatorIbEEE20__throw_length_errorB8ue170006Ev, symObjAddr: 0x613C, symBinAddr: 0x100009AD4, symSize: 0x1C }
  - { offsetInCU: 0xF0B7, offset: 0xF0B7, size: 0x8, addend: 0x0, symName: __ZNKSt3__16vectorIbNS_9allocatorIbEEE13get_allocatorB8ue170006Ev, symObjAddr: 0x6158, symBinAddr: 0x100009AF0, symSize: 0x30 }
  - { offsetInCU: 0xF0DD, offset: 0xF0DD, size: 0x8, addend: 0x0, symName: __ZNSt3__16vectorIbNS_9allocatorIbEEEC1B8ue170006ERKS2_, symObjAddr: 0x6188, symBinAddr: 0x100009B20, symSize: 0x34 }
  - { offsetInCU: 0xF118, offset: 0xF118, size: 0x8, addend: 0x0, symName: __ZNSt3__16vectorIbNS_9allocatorIbEEE11__vallocateB8ue170006Em, symObjAddr: 0x61BC, symBinAddr: 0x100009B54, symSize: 0xA0 }
  - { offsetInCU: 0xF15C, offset: 0xF15C, size: 0x8, addend: 0x0, symName: __ZNSt3__16vectorIbNS_9allocatorIbEEE18__construct_at_endINS_14__bit_iteratorIS3_Lb0ELm0EEES6_EEvT_T0_m, symObjAddr: 0x625C, symBinAddr: 0x100009BF4, symSize: 0x12C }
  - { offsetInCU: 0xF1D4, offset: 0xF1D4, size: 0x8, addend: 0x0, symName: __ZNKSt3__16vectorIbNS_9allocatorIbEEE4sizeB8ue170006Ev, symObjAddr: 0x6388, symBinAddr: 0x100009D20, symSize: 0x18 }
  - { offsetInCU: 0xF1FA, offset: 0xF1FA, size: 0x8, addend: 0x0, symName: __ZNSt3__16vectorIbNS_9allocatorIbEEE4swapERS3_, symObjAddr: 0x63A0, symBinAddr: 0x100009D38, symSize: 0x84 }
  - { offsetInCU: 0xF23B, offset: 0xF23B, size: 0x8, addend: 0x0, symName: __ZNSt3__116allocator_traitsINS_9allocatorImEEE8max_sizeB8ue170006IS2_vEEmRKS2_, symObjAddr: 0x6424, symBinAddr: 0x100009DBC, symSize: 0x24 }
  - { offsetInCU: 0xF269, offset: 0xF269, size: 0x8, addend: 0x0, symName: __ZNKSt3__16vectorIbNS_9allocatorIbEEE7__allocB8ue170006Ev, symObjAddr: 0x6448, symBinAddr: 0x100009DE0, symSize: 0x28 }
  - { offsetInCU: 0xF28F, offset: 0xF28F, size: 0x8, addend: 0x0, symName: __ZNKSt3__19allocatorImE8max_sizeB8ue170006Ev, symObjAddr: 0x6470, symBinAddr: 0x100009E08, symSize: 0x14 }
  - { offsetInCU: 0xF2B5, offset: 0xF2B5, size: 0x8, addend: 0x0, symName: __ZNKSt3__117__compressed_pairImNS_9allocatorImEEE6secondB8ue170006Ev, symObjAddr: 0x6484, symBinAddr: 0x100009E1C, symSize: 0x24 }
  - { offsetInCU: 0xF2DB, offset: 0xF2DB, size: 0x8, addend: 0x0, symName: __ZNKSt3__122__compressed_pair_elemINS_9allocatorImEELi1ELb1EE5__getB8ue170006Ev, symObjAddr: 0x64A8, symBinAddr: 0x100009E40, symSize: 0x14 }
  - { offsetInCU: 0xF301, offset: 0xF301, size: 0x8, addend: 0x0, symName: __ZNSt3__19allocatorIbEC1B8ue170006ImEERKNS0_IT_EE, symObjAddr: 0x64BC, symBinAddr: 0x100009E54, symSize: 0x34 }
  - { offsetInCU: 0xF33E, offset: 0xF33E, size: 0x8, addend: 0x0, symName: __ZNSt3__19allocatorIbEC2B8ue170006ImEERKNS0_IT_EE, symObjAddr: 0x64F0, symBinAddr: 0x100009E88, symSize: 0x30 }
  - { offsetInCU: 0xF37B, offset: 0xF37B, size: 0x8, addend: 0x0, symName: __ZNSt3__116__non_trivial_ifILb1ENS_9allocatorIbEEEC2B8ue170006Ev, symObjAddr: 0x6520, symBinAddr: 0x100009EB8, symSize: 0x14 }
  - { offsetInCU: 0xF3A5, offset: 0xF3A5, size: 0x8, addend: 0x0, symName: __ZNSt3__16vectorIbNS_9allocatorIbEEEC2B8ue170006ERKS2_, symObjAddr: 0x6534, symBinAddr: 0x100009ECC, symSize: 0x6C }
  - { offsetInCU: 0xF3E5, offset: 0xF3E5, size: 0x8, addend: 0x0, symName: __ZNSt3__19allocatorImEC1B8ue170006IbEERKNS0_IT_EE, symObjAddr: 0x65A0, symBinAddr: 0x100009F38, symSize: 0x34 }
  - { offsetInCU: 0xF427, offset: 0xF427, size: 0x8, addend: 0x0, symName: __ZNSt3__117__compressed_pairImNS_9allocatorImEEEC1B8ue170006IiS2_EEOT_OT0_, symObjAddr: 0x65D4, symBinAddr: 0x100009F6C, symSize: 0x3C }
  - { offsetInCU: 0xF47F, offset: 0xF47F, size: 0x8, addend: 0x0, symName: __ZNSt3__19allocatorImEC2B8ue170006IbEERKNS0_IT_EE, symObjAddr: 0x6610, symBinAddr: 0x100009FA8, symSize: 0x30 }
  - { offsetInCU: 0xF4BC, offset: 0xF4BC, size: 0x8, addend: 0x0, symName: __ZNSt3__117__compressed_pairImNS_9allocatorImEEEC2B8ue170006IiS2_EEOT_OT0_, symObjAddr: 0x6640, symBinAddr: 0x100009FD8, symSize: 0x44 }
  - { offsetInCU: 0xF514, offset: 0xF514, size: 0x8, addend: 0x0, symName: __ZNSt3__122__compressed_pair_elemINS_9allocatorImEELi1ELb1EEC2B8ue170006IS2_vEEOT_, symObjAddr: 0x6684, symBinAddr: 0x10000A01C, symSize: 0x18 }
  - { offsetInCU: 0xF556, offset: 0xF556, size: 0x8, addend: 0x0, symName: __ZNSt3__16vectorIbNS_9allocatorIbEEE26__external_cap_to_internalB8ue170006Em, symObjAddr: 0x66DC, symBinAddr: 0x10000A074, symSize: 0x24 }
  - { offsetInCU: 0xF57A, offset: 0xF57A, size: 0x8, addend: 0x0, symName: __ZNSt3__19allocatorImE8allocateB8ue170006Em, symObjAddr: 0x6700, symBinAddr: 0x10000A098, symSize: 0x58 }
  - { offsetInCU: 0xF5AE, offset: 0xF5AE, size: 0x8, addend: 0x0, symName: __ZNSt3__114__bit_iteratorINS_6vectorIbNS_9allocatorIbEEEELb0ELm0EEC1B8ue170006ERKS5_, symObjAddr: 0x67E0, symBinAddr: 0x10000A178, symSize: 0x34 }
  - { offsetInCU: 0xF60A, offset: 0xF60A, size: 0x8, addend: 0x0, symName: __ZNKSt3__111__copy_loopINS_17_ClassicAlgPolicyEEclB8ue170006INS_14__bit_iteratorINS_6vectorIbNS_9allocatorIbEEEELb0ELm0EEES9_S9_EENS_4pairIT_T1_EESB_T0_SC_, symObjAddr: 0x6A84, symBinAddr: 0x10000A41C, symSize: 0xB8 }
  - { offsetInCU: 0xF678, offset: 0xF678, size: 0x8, addend: 0x0, symName: __ZNSt3__115__bit_referenceINS_6vectorIbNS_9allocatorIbEEEELb1EEaSB8ue170006ERKS5_, symObjAddr: 0x6CA0, symBinAddr: 0x10000A638, symSize: 0x40 }
  - { offsetInCU: 0xF6AC, offset: 0xF6AC, size: 0x8, addend: 0x0, symName: __ZNSt3__118__unwrap_iter_implINS_14__bit_iteratorINS_6vectorIbNS_9allocatorIbEEEELb0ELm0EEELb0EE8__unwrapB8ue170006ES6_, symObjAddr: 0x6CE0, symBinAddr: 0x10000A678, symSize: 0x38 }
  - { offsetInCU: 0xF6D5, offset: 0xF6D5, size: 0x8, addend: 0x0, symName: __ZNSt3__14pairINS_14__bit_iteratorINS_6vectorIbNS_9allocatorIbEEEELb0ELm0EEES6_EC1B8ue170006IS6_S6_LPv0EEEOT_OT0_, symObjAddr: 0x6D18, symBinAddr: 0x10000A6B0, symSize: 0x3C }
  - { offsetInCU: 0xF733, offset: 0xF733, size: 0x8, addend: 0x0, symName: __ZNSt3__14pairINS_14__bit_iteratorINS_6vectorIbNS_9allocatorIbEEEELb0ELm0EEES6_EC2B8ue170006IS6_S6_LPv0EEEOT_OT0_, symObjAddr: 0x6D54, symBinAddr: 0x10000A6EC, symSize: 0x48 }
  - { offsetInCU: 0xF791, offset: 0xF791, size: 0x8, addend: 0x0, symName: __ZNSt3__118__unwrap_iter_implINS_14__bit_iteratorINS_6vectorIbNS_9allocatorIbEEEELb0ELm0EEELb0EE8__rewrapB8ue170006ES6_S6_, symObjAddr: 0x6D9C, symBinAddr: 0x10000A734, symSize: 0x3C }
  - { offsetInCU: 0xF7C0, offset: 0xF7C0, size: 0x8, addend: 0x0, symName: __ZNSt3__114__bit_iteratorINS_6vectorIbNS_9allocatorIbEEEELb0ELm0EEC2B8ue170006ERKS5_, symObjAddr: 0x6DD8, symBinAddr: 0x10000A770, symSize: 0x30 }
  - { offsetInCU: 0xF7F9, offset: 0xF7F9, size: 0x8, addend: 0x0, symName: __ZNSt3__16vectorIbNS_9allocatorIbEEE10__align_itB8ue170006Em, symObjAddr: 0x6EC0, symBinAddr: 0x10000A858, symSize: 0x1C }
  - { offsetInCU: 0xF81D, offset: 0xF81D, size: 0x8, addend: 0x0, symName: __ZNKSt3__16__lessIvvEclB8ue170006ImmEEbRKT_RKT0_, symObjAddr: 0x6F30, symBinAddr: 0x10000A8C8, symSize: 0x34 }
  - { offsetInCU: 0xF871, offset: 0xF871, size: 0x8, addend: 0x0, symName: __ZNSt3__16vectorIbNS_9allocatorIbEEE10__make_refB8ue170006Em, symObjAddr: 0x6F64, symBinAddr: 0x10000A8FC, symSize: 0x60 }
  - { offsetInCU: 0xF8A6, offset: 0xF8A6, size: 0x8, addend: 0x0, symName: __ZNSt3__16vectorIbNS_9allocatorIbEEEC2ERKS3_, symObjAddr: 0x70C4, symBinAddr: 0x10000AA5C, symSize: 0xDC }
  - { offsetInCU: 0xF8E1, offset: 0xF8E1, size: 0x8, addend: 0x0, symName: __ZNSt3__116allocator_traitsINS_9allocatorImEEE37select_on_container_copy_constructionB8ue170006IS2_vvEES2_RKS2_, symObjAddr: 0x71A0, symBinAddr: 0x10000AB38, symSize: 0x10 }
  - { offsetInCU: 0xF910, offset: 0xF910, size: 0x8, addend: 0x0, symName: __ZNSt3__16vectorIbNS_9allocatorIbEEE18__construct_at_endINS_14__bit_iteratorIS3_Lb1ELm0EEES6_EEvT_T0_m, symObjAddr: 0x71B0, symBinAddr: 0x10000AB48, symSize: 0x124 }
  - { offsetInCU: 0xF986, offset: 0xF986, size: 0x8, addend: 0x0, symName: __ZNKSt3__16vectorIbNS_9allocatorIbEEE5beginB8ue170006Ev, symObjAddr: 0x72D4, symBinAddr: 0x10000AC6C, symSize: 0x38 }
  - { offsetInCU: 0xF9AC, offset: 0xF9AC, size: 0x8, addend: 0x0, symName: __ZNKSt3__16vectorIbNS_9allocatorIbEEE3endB8ue170006Ev, symObjAddr: 0x730C, symBinAddr: 0x10000ACA4, symSize: 0x38 }
  - { offsetInCU: 0xF9EB, offset: 0xF9EB, size: 0x8, addend: 0x0, symName: __ZNKSt3__111__copy_loopINS_17_ClassicAlgPolicyEEclB8ue170006INS_14__bit_iteratorINS_6vectorIbNS_9allocatorIbEEEELb1ELm0EEES9_NS4_IS8_Lb0ELm0EEEEENS_4pairIT_T1_EESC_T0_SD_, symObjAddr: 0x7610, symBinAddr: 0x10000AFA8, symSize: 0xC4 }
  - { offsetInCU: 0xFA75, offset: 0xFA75, size: 0x8, addend: 0x0, symName: __ZNSt3__14pairINS_14__bit_iteratorINS_6vectorIbNS_9allocatorIbEEEELb1ELm0EEES6_EC1B8ue170006IS6_S6_LPv0EEEOT_OT0_, symObjAddr: 0x77EC, symBinAddr: 0x10000B184, symSize: 0x3C }
  - { offsetInCU: 0xFAD3, offset: 0xFAD3, size: 0x8, addend: 0x0, symName: __ZNSt3__14pairINS_14__bit_iteratorINS_6vectorIbNS_9allocatorIbEEEELb1ELm0EEES6_EC2B8ue170006IS6_S6_LPv0EEEOT_OT0_, symObjAddr: 0x7828, symBinAddr: 0x10000B1C0, symSize: 0x34 }
  - { offsetInCU: 0xFB31, offset: 0xFB31, size: 0x8, addend: 0x0, symName: __ZNSt3__118__unwrap_iter_implINS_14__bit_iteratorINS_6vectorIbNS_9allocatorIbEEEELb1ELm0EEELb0EE8__unwrapB8ue170006ES6_, symObjAddr: 0x785C, symBinAddr: 0x10000B1F4, symSize: 0x24 }
  - { offsetInCU: 0xFB54, offset: 0xFB54, size: 0x8, addend: 0x0, symName: __ZNKSt3__114__bit_iteratorINS_6vectorIbNS_9allocatorIbEEEELb1ELm0EEdeB8ue170006Ev, symObjAddr: 0x78B4, symBinAddr: 0x10000B24C, symSize: 0x44 }
  - { offsetInCU: 0xFB7A, offset: 0xFB7A, size: 0x8, addend: 0x0, symName: __ZNKSt3__121__bit_const_referenceINS_6vectorIbNS_9allocatorIbEEEEEcvbB8ue170006Ev, symObjAddr: 0x78F8, symBinAddr: 0x10000B290, symSize: 0x2C }
  - { offsetInCU: 0xFBA0, offset: 0xFBA0, size: 0x8, addend: 0x0, symName: __ZNSt3__114__bit_iteratorINS_6vectorIbNS_9allocatorIbEEEELb1ELm0EEppB8ue170006Ev, symObjAddr: 0x7924, symBinAddr: 0x10000B2BC, symSize: 0x5C }
  - { offsetInCU: 0xFBC6, offset: 0xFBC6, size: 0x8, addend: 0x0, symName: __ZNSt3__121__bit_const_referenceINS_6vectorIbNS_9allocatorIbEEEEEC1B8ue170006EPKmm, symObjAddr: 0x79E4, symBinAddr: 0x10000B37C, symSize: 0x3C }
  - { offsetInCU: 0xFC0C, offset: 0xFC0C, size: 0x8, addend: 0x0, symName: __ZNSt3__121__bit_const_referenceINS_6vectorIbNS_9allocatorIbEEEEEC2B8ue170006EPKmm, symObjAddr: 0x7A20, symBinAddr: 0x10000B3B8, symSize: 0x2C }
  - { offsetInCU: 0xFC52, offset: 0xFC52, size: 0x8, addend: 0x0, symName: __ZNSt3__14pairINS_14__bit_iteratorINS_6vectorIbNS_9allocatorIbEEEELb1ELm0EEENS1_IS5_Lb0ELm0EEEEC1B8ue170006IS6_S7_LPv0EEEOT_OT0_, symObjAddr: 0x7A4C, symBinAddr: 0x10000B3E4, symSize: 0x3C }
  - { offsetInCU: 0xFCB0, offset: 0xFCB0, size: 0x8, addend: 0x0, symName: __ZNSt3__14pairINS_14__bit_iteratorINS_6vectorIbNS_9allocatorIbEEEELb1ELm0EEENS1_IS5_Lb0ELm0EEEEC2B8ue170006IS6_S7_LPv0EEEOT_OT0_, symObjAddr: 0x7A88, symBinAddr: 0x10000B420, symSize: 0x48 }
  - { offsetInCU: 0xFD0E, offset: 0xFD0E, size: 0x8, addend: 0x0, symName: __ZNSt3__118__unwrap_iter_implINS_14__bit_iteratorINS_6vectorIbNS_9allocatorIbEEEELb1ELm0EEELb0EE8__rewrapB8ue170006ES6_S6_, symObjAddr: 0x7B44, symBinAddr: 0x10000B4DC, symSize: 0x2C }
  - { offsetInCU: 0xFD3B, offset: 0xFD3B, size: 0x8, addend: 0x0, symName: __ZNKSt3__16vectorIbNS_9allocatorIbEEE11__make_iterB8ue170006Em, symObjAddr: 0x7B70, symBinAddr: 0x10000B508, symSize: 0x5C }
  - { offsetInCU: 0xFD70, offset: 0xFD70, size: 0x8, addend: 0x0, symName: __ZNSt3__114__bit_iteratorINS_6vectorIbNS_9allocatorIbEEEELb1ELm0EEC1B8ue170006EPKmj, symObjAddr: 0x7BCC, symBinAddr: 0x10000B564, symSize: 0x3C }
  - { offsetInCU: 0xFDB8, offset: 0xFDB8, size: 0x8, addend: 0x0, symName: __ZNSt3__114__bit_iteratorINS_6vectorIbNS_9allocatorIbEEEELb1ELm0EEC2B8ue170006EPKmj, symObjAddr: 0x7C08, symBinAddr: 0x10000B5A0, symSize: 0x2C }
...
