---
triple:          'arm64-apple-darwin'
binary-path:     '/Users/owner/Desktop/raylib/projects/VSCode/practice'
relocations:
  - { offsetInCU: 0x3F, offset: 0x3F, size: 0x8, addend: 0x0, symName: _tilesUsed, symObjAddr: 0x5F28, symBinAddr: 0x10000C000, symSize: 0x0 }
  - { offsetInCU: 0x66, offset: 0x66, size: 0x8, addend: 0x0, symName: _currPlayer, symObjAddr: 0x5F30, symBinAddr: 0x10000C008, symSize: 0x0 }
  - { offsetInCU: 0x7B, offset: 0x7B, size: 0x8, addend: 0x0, symName: _bottomMask, symObjAddr: 0x5F38, symBinAddr: 0x10000C010, symSize: 0x0 }
  - { offsetInCU: 0xA3, offset: 0xA3, size: 0x8, addend: 0x0, symName: _indentationLevel, symObjAddr: 0x5F40, symBinAddr: 0x10000C018, symSize: 0x0 }
  - { offsetInCU: 0x3697, offset: 0x3697, size: 0x8, addend: 0x0, symName: __ZNSt3__124__put_character_sequenceB8ue170006IcNS_11char_traitsIcEEEERNS_13basic_ostreamIT_T0_EES7_PKS4_m, symObjAddr: 0x16F4, symBinAddr: 0x1000030E4, symSize: 0x1EC }
  - { offsetInCU: 0x5BEC, offset: 0x5BEC, size: 0x8, addend: 0x0, symName: __ZNSt3__16copy_nB8ue170006IPKcmPcEENS_9enable_ifIXsr37__has_random_access_iterator_categoryIT_EE5valueET1_E4typeES5_T0_S6_, symObjAddr: 0x2BF0, symBinAddr: 0x1000045E0, symSize: 0x44 }
  - { offsetInCU: 0x6994, offset: 0x6994, size: 0x8, addend: 0x0, symName: __ZNSt3__1lsB8ue170006INS_11char_traitsIcEEEERNS_13basic_ostreamIcT_EES6_PKc, symObjAddr: 0x1E8, symBinAddr: 0x100001BD8, symSize: 0x48 }
  - { offsetInCU: 0x69DA, offset: 0x69DA, size: 0x8, addend: 0x0, symName: __ZNSt3__14endlB8ue170006IcNS_11char_traitsIcEEEERNS_13basic_ostreamIT_T0_EES7_, symObjAddr: 0x25C, symBinAddr: 0x100001C4C, symSize: 0x58 }
  - { offsetInCU: 0x6A1A, offset: 0x6A1A, size: 0x8, addend: 0x0, symName: __ZNSt3__1lsB8ue170006IcNS_11char_traitsIcEENS_9allocatorIcEEEERNS_13basic_ostreamIT_T0_EES9_RKNS_12basic_stringIS6_S7_T1_EE, symObjAddr: 0x358, symBinAddr: 0x100001D48, symSize: 0x4C }
  - { offsetInCU: 0x6A72, offset: 0x6A72, size: 0x8, addend: 0x0, symName: __ZNSt3__1plB8ue170006IcNS_11char_traitsIcEENS_9allocatorIcEEEENS_12basic_stringIT_T0_T1_EERKS9_PKS6_, symObjAddr: 0x64C, symBinAddr: 0x10000203C, symSize: 0x11C }
  - { offsetInCU: 0x6B13, offset: 0x6B13, size: 0x8, addend: 0x0, symName: __ZNSt3__1eqB8ue170006INS_5arrayIiLm7EEELm7EEEbRKNS1_IT_XT0_EEES6_, symObjAddr: 0xB20, symBinAddr: 0x100002510, symSize: 0x54 }
  - { offsetInCU: 0x6B63, offset: 0x6B63, size: 0x8, addend: 0x0, symName: __ZNSt3__14fillB8ue170006IPiiEEvT_S2_RKT0_, symObjAddr: 0x1018, symBinAddr: 0x100002A08, symSize: 0x34 }
  - { offsetInCU: 0x6E81, offset: 0x6E81, size: 0x8, addend: 0x0, symName: __ZNSt3__118__constexpr_strlenB8ue170006EPKc, symObjAddr: 0x16C4, symBinAddr: 0x1000030B4, symSize: 0x24 }
  - { offsetInCU: 0x6EAD, offset: 0x6EAD, size: 0x8, addend: 0x0, symName: __ZNSt3__116__pad_and_outputB8ue170006IcNS_11char_traitsIcEEEENS_19ostreambuf_iteratorIT_T0_EES6_PKS4_S8_S8_RNS_8ios_baseES4_, symObjAddr: 0x18FC, symBinAddr: 0x1000032EC, symSize: 0x240 }
  - { offsetInCU: 0x6F7C, offset: 0x6F7C, size: 0x8, addend: 0x0, symName: __ZNSt3__112__to_addressB8ue170006IcEEPT_S2_, symObjAddr: 0x1CE4, symBinAddr: 0x1000036D4, symSize: 0x14 }
  - { offsetInCU: 0x6FE4, offset: 0x6FE4, size: 0x8, addend: 0x0, symName: __ZNSt3__19use_facetB8ue170006INS_5ctypeIcEEEERKT_RKNS_6localeE, symObjAddr: 0x1F9C, symBinAddr: 0x10000398C, symSize: 0x2C }
  - { offsetInCU: 0x74B1, offset: 0x74B1, size: 0x8, addend: 0x0, symName: __ZNSt3__112__to_addressB8ue170006IKcEEPT_S3_, symObjAddr: 0x20FC, symBinAddr: 0x100003AEC, symSize: 0x14 }
  - { offsetInCU: 0x7705, offset: 0x7705, size: 0x8, addend: 0x0, symName: __ZNSt3__120__throw_length_errorB8ue170006EPKc, symObjAddr: 0x295C, symBinAddr: 0x10000434C, symSize: 0x64 }
  - { offsetInCU: 0x772F, offset: 0x772F, size: 0x8, addend: 0x0, symName: __ZNSt3__117__libcpp_allocateB8ue170006Emm, symObjAddr: 0x2AE8, symBinAddr: 0x1000044D8, symSize: 0x60 }
  - { offsetInCU: 0x7789, offset: 0x7789, size: 0x8, addend: 0x0, symName: __ZNSt3__124__is_overaligned_for_newB8ue170006Em, symObjAddr: 0x2B48, symBinAddr: 0x100004538, symSize: 0x20 }
  - { offsetInCU: 0x77B7, offset: 0x77B7, size: 0x8, addend: 0x0, symName: __ZNSt3__121__libcpp_operator_newB8ue170006IJmSt11align_val_tEEEPvDpT_, symObjAddr: 0x2B68, symBinAddr: 0x100004558, symSize: 0x2C }
  - { offsetInCU: 0x7804, offset: 0x7804, size: 0x8, addend: 0x0, symName: __ZNSt3__121__libcpp_operator_newB8ue170006IJmEEEPvDpT_, symObjAddr: 0x2B94, symBinAddr: 0x100004584, symSize: 0x24 }
  - { offsetInCU: 0x783D, offset: 0x783D, size: 0x8, addend: 0x0, symName: __ZNSt3__14copyB8ue170006IPKcPcEET0_T_S5_S4_, symObjAddr: 0x2C34, symBinAddr: 0x100004624, symSize: 0x40 }
  - { offsetInCU: 0x7897, offset: 0x7897, size: 0x8, addend: 0x0, symName: __ZNSt3__16__copyB8ue170006INS_17_ClassicAlgPolicyEPKcS3_PcEENS_4pairIT0_T2_EES6_T1_S7_, symObjAddr: 0x2C74, symBinAddr: 0x100004664, symSize: 0x44 }
  - { offsetInCU: 0x7903, offset: 0x7903, size: 0x8, addend: 0x0, symName: __ZNSt3__123__dispatch_copy_or_moveB8ue170006INS_17_ClassicAlgPolicyENS_11__copy_loopIS1_EENS_14__copy_trivialEPKcS6_PcEENS_4pairIT2_T4_EES9_T3_SA_, symObjAddr: 0x2CB8, symBinAddr: 0x1000046A8, symSize: 0x44 }
  - { offsetInCU: 0x7981, offset: 0x7981, size: 0x8, addend: 0x0, symName: __ZNSt3__121__unwrap_and_dispatchB8ue170006INS_10__overloadINS_11__copy_loopINS_17_ClassicAlgPolicyEEENS_14__copy_trivialEEEPKcS8_PcLi0EEENS_4pairIT0_T2_EESB_T1_SC_, symObjAddr: 0x2CFC, symBinAddr: 0x1000046EC, symSize: 0xB4 }
  - { offsetInCU: 0x7A0F, offset: 0x7A0F, size: 0x8, addend: 0x0, symName: __ZNSt3__114__unwrap_rangeB8ue170006IPKcS2_EENS_4pairIT0_S4_EET_S6_, symObjAddr: 0x2DB0, symBinAddr: 0x1000047A0, symSize: 0x60 }
  - { offsetInCU: 0x7BA4, offset: 0x7BA4, size: 0x8, addend: 0x0, symName: __ZNSt3__113__unwrap_iterB8ue170006IPcNS_18__unwrap_iter_implIS1_Lb1EEELi0EEEDTclsrT0_8__unwrapclsr3stdE7declvalIT_EEEES5_, symObjAddr: 0x2E58, symBinAddr: 0x100004848, symSize: 0x24 }
  - { offsetInCU: 0x7BE8, offset: 0x7BE8, size: 0x8, addend: 0x0, symName: __ZNSt3__19make_pairB8ue170006IPKcPcEENS_4pairINS_18__unwrap_ref_decayIT_E4typeENS5_IT0_E4typeEEEOS6_OS9_, symObjAddr: 0x2E7C, symBinAddr: 0x10000486C, symSize: 0x38 }
  - { offsetInCU: 0x7C37, offset: 0x7C37, size: 0x8, addend: 0x0, symName: __ZNSt3__114__rewrap_rangeB8ue170006IPKcS2_EET_S3_T0_, symObjAddr: 0x2EB4, symBinAddr: 0x1000048A4, symSize: 0x2C }
  - { offsetInCU: 0x7C83, offset: 0x7C83, size: 0x8, addend: 0x0, symName: __ZNSt3__113__rewrap_iterB8ue170006IPcS1_NS_18__unwrap_iter_implIS1_Lb1EEEEET_S4_T0_, symObjAddr: 0x2EE0, symBinAddr: 0x1000048D0, symSize: 0x3C }
  - { offsetInCU: 0x7CD8, offset: 0x7CD8, size: 0x8, addend: 0x0, symName: __ZNSt3__19make_pairB8ue170006IPKcS2_EENS_4pairINS_18__unwrap_ref_decayIT_E4typeENS4_IT0_E4typeEEEOS5_OS8_, symObjAddr: 0x2F1C, symBinAddr: 0x10000490C, symSize: 0x38 }
  - { offsetInCU: 0x7D27, offset: 0x7D27, size: 0x8, addend: 0x0, symName: __ZNSt3__113__unwrap_iterB8ue170006IPKcNS_18__unwrap_iter_implIS2_Lb1EEELi0EEEDTclsrT0_8__unwrapclsr3stdE7declvalIT_EEEES6_, symObjAddr: 0x2F54, symBinAddr: 0x100004944, symSize: 0x24 }
  - { offsetInCU: 0x7E92, offset: 0x7E92, size: 0x8, addend: 0x0, symName: __ZNSt3__119__copy_trivial_implB8ue170006IKccEENS_4pairIPT_PT0_EES4_S4_S6_, symObjAddr: 0x300C, symBinAddr: 0x1000049FC, symSize: 0x78 }
  - { offsetInCU: 0x7EFA, offset: 0x7EFA, size: 0x8, addend: 0x0, symName: __ZNSt3__119__constexpr_memmoveB8ue170006IcKcLi0EEEPT_S3_PT0_NS_15__element_countE, symObjAddr: 0x3084, symBinAddr: 0x100004A74, symSize: 0x64 }
  - { offsetInCU: 0x7F68, offset: 0x7F68, size: 0x8, addend: 0x0, symName: __ZNSt3__19make_pairB8ue170006IRPKcPcEENS_4pairINS_18__unwrap_ref_decayIT_E4typeENS6_IT0_E4typeEEEOS7_OSA_, symObjAddr: 0x30E8, symBinAddr: 0x100004AD8, symSize: 0x38 }
  - { offsetInCU: 0x800A, offset: 0x800A, size: 0x8, addend: 0x0, symName: __ZNSt3__113__rewrap_iterB8ue170006IPKcS2_NS_18__unwrap_iter_implIS2_Lb1EEEEET_S5_T0_, symObjAddr: 0x3224, symBinAddr: 0x100004C14, symSize: 0x3C }
  - { offsetInCU: 0x805F, offset: 0x805F, size: 0x8, addend: 0x0, symName: __ZNSt3__16fill_nB8ue170006IPcmcEET_S2_T0_RKT1_, symObjAddr: 0x32F0, symBinAddr: 0x100004CE0, symSize: 0x44 }
  - { offsetInCU: 0x80C2, offset: 0x80C2, size: 0x8, addend: 0x0, symName: __ZNSt3__18__fill_nB8ue170006IPcmcEET_S2_T0_RKT1_, symObjAddr: 0x3334, symBinAddr: 0x100004D24, symSize: 0x64 }
  - { offsetInCU: 0x8125, offset: 0x8125, size: 0x8, addend: 0x0, symName: __ZNSt3__121__convert_to_integralB8ue170006Em, symObjAddr: 0x3398, symBinAddr: 0x100004D88, symSize: 0x14 }
  - { offsetInCU: 0x8151, offset: 0x8151, size: 0x8, addend: 0x0, symName: __ZNSt3__119__libcpp_deallocateB8ue170006EPvmm, symObjAddr: 0x36DC, symBinAddr: 0x1000050CC, symSize: 0x60 }
  - { offsetInCU: 0x81B6, offset: 0x81B6, size: 0x8, addend: 0x0, symName: __ZNSt3__127__do_deallocate_handle_sizeB8ue170006IJSt11align_val_tEEEvPvmDpT_, symObjAddr: 0x373C, symBinAddr: 0x10000512C, symSize: 0x30 }
  - { offsetInCU: 0x8209, offset: 0x8209, size: 0x8, addend: 0x0, symName: __ZNSt3__127__do_deallocate_handle_sizeB8ue170006IJEEEvPvmDpT_, symObjAddr: 0x376C, symBinAddr: 0x10000515C, symSize: 0x28 }
  - { offsetInCU: 0x8247, offset: 0x8247, size: 0x8, addend: 0x0, symName: __ZNSt3__124__libcpp_operator_deleteB8ue170006IJPvSt11align_val_tEEEvDpT_, symObjAddr: 0x3794, symBinAddr: 0x100005184, symSize: 0x2C }
  - { offsetInCU: 0x8290, offset: 0x8290, size: 0x8, addend: 0x0, symName: __ZNSt3__124__libcpp_operator_deleteB8ue170006IJPvEEEvDpT_, symObjAddr: 0x37C0, symBinAddr: 0x1000051B0, symSize: 0x24 }
  - { offsetInCU: 0x82C5, offset: 0x82C5, size: 0x8, addend: 0x0, symName: __ZNSt3__15equalB8ue170006IPKNS_5arrayIiLm7EEES4_EEbT_S5_T0_, symObjAddr: 0x387C, symBinAddr: 0x10000526C, symSize: 0x38 }
  - { offsetInCU: 0x831F, offset: 0x831F, size: 0x8, addend: 0x0, symName: __ZNSt3__15equalB8ue170006IPKNS_5arrayIiLm7EEES4_NS_10__equal_toEEEbT_S6_T0_T1_, symObjAddr: 0x3900, symBinAddr: 0x1000052F0, symSize: 0x5C }
  - { offsetInCU: 0x8390, offset: 0x8390, size: 0x8, addend: 0x0, symName: __ZNSt3__117__equal_iter_implB8ue170006IPKNS_5arrayIiLm7EEES4_NS_10__equal_toEEEbT_S6_T0_RT1_, symObjAddr: 0x395C, symBinAddr: 0x10000534C, symSize: 0xAC }
  - { offsetInCU: 0x8401, offset: 0x8401, size: 0x8, addend: 0x0, symName: __ZNSt3__113__unwrap_iterB8ue170006IPKNS_5arrayIiLm7EEENS_18__unwrap_iter_implIS4_Lb1EEELi0EEEDTclsrT0_8__unwrapclsr3stdE7declvalIT_EEEES8_, symObjAddr: 0x3A08, symBinAddr: 0x1000053F8, symSize: 0x24 }
  - { offsetInCU: 0x8480, offset: 0x8480, size: 0x8, addend: 0x0, symName: __ZNSt3__1eqB8ue170006IiLm7EEEbRKNS_5arrayIT_XT0_EEES5_, symObjAddr: 0x3A60, symBinAddr: 0x100005450, symSize: 0x54 }
  - { offsetInCU: 0x84D0, offset: 0x84D0, size: 0x8, addend: 0x0, symName: __ZNSt3__15equalB8ue170006IPKiS2_EEbT_S3_T0_, symObjAddr: 0x3AB4, symBinAddr: 0x1000054A4, symSize: 0x38 }
  - { offsetInCU: 0x852A, offset: 0x852A, size: 0x8, addend: 0x0, symName: __ZNSt3__15equalB8ue170006IPKiS2_NS_10__equal_toEEEbT_S4_T0_T1_, symObjAddr: 0x3B38, symBinAddr: 0x100005528, symSize: 0x5C }
  - { offsetInCU: 0x859B, offset: 0x859B, size: 0x8, addend: 0x0, symName: __ZNSt3__117__equal_iter_implB8ue170006IKiS1_NS_10__equal_toELi0EEEbPT_S4_PT0_RT1_, symObjAddr: 0x3B94, symBinAddr: 0x100005584, symSize: 0x4C }
  - { offsetInCU: 0x860E, offset: 0x860E, size: 0x8, addend: 0x0, symName: __ZNSt3__113__unwrap_iterB8ue170006IPKiNS_18__unwrap_iter_implIS2_Lb1EEELi0EEEDTclsrT0_8__unwrapclsr3stdE7declvalIT_EEEES6_, symObjAddr: 0x3BE0, symBinAddr: 0x1000055D0, symSize: 0x24 }
  - { offsetInCU: 0x8652, offset: 0x8652, size: 0x8, addend: 0x0, symName: __ZNSt3__124__constexpr_memcmp_equalB8ue170006IiiEEbPKT_PKT0_NS_15__element_countE, symObjAddr: 0x3C04, symBinAddr: 0x1000055F4, symSize: 0x4C }
  - { offsetInCU: 0x870D, offset: 0x870D, size: 0x8, addend: 0x0, symName: __ZNSt3__112__to_addressB8ue170006IKiEEPT_S3_, symObjAddr: 0x3C74, symBinAddr: 0x100005664, symSize: 0x14 }
  - { offsetInCU: 0x8795, offset: 0x8795, size: 0x8, addend: 0x0, symName: __ZNSt3__112__to_addressB8ue170006IKNS_5arrayIiLm7EEEEEPT_S5_, symObjAddr: 0x3CC0, symBinAddr: 0x1000056B0, symSize: 0x14 }
  - { offsetInCU: 0x87CA, offset: 0x87CA, size: 0x8, addend: 0x0, symName: __ZNSt3__119__allocate_at_leastB8ue170006INS_9allocatorImEEEENS_19__allocation_resultINS_16allocator_traitsIT_E7pointerEEERS5_m, symObjAddr: 0x463C, symBinAddr: 0x10000602C, symSize: 0x40 }
  - { offsetInCU: 0x880D, offset: 0x880D, size: 0x8, addend: 0x0, symName: __ZNSt3__16__copyB8ue170006INS_17_ClassicAlgPolicyENS_14__bit_iteratorINS_6vectorIbNS_9allocatorIbEEEELb0ELm0EEES7_S7_EENS_4pairIT0_T2_EES9_T1_SA_, symObjAddr: 0x46F8, symBinAddr: 0x1000060E8, symSize: 0x88 }
  - { offsetInCU: 0x887C, offset: 0x887C, size: 0x8, addend: 0x0, symName: __ZNSt3__123__dispatch_copy_or_moveB8ue170006INS_17_ClassicAlgPolicyENS_11__copy_loopIS1_EENS_14__copy_trivialENS_14__bit_iteratorINS_6vectorIbNS_9allocatorIbEEEELb0ELm0EEESA_SA_EENS_4pairIT2_T4_EESC_T3_SD_, symObjAddr: 0x4818, symBinAddr: 0x100006208, symSize: 0x88 }
  - { offsetInCU: 0x88FD, offset: 0x88FD, size: 0x8, addend: 0x0, symName: __ZNSt3__121__unwrap_and_dispatchB8ue170006INS_10__overloadINS_11__copy_loopINS_17_ClassicAlgPolicyEEENS_14__copy_trivialEEENS_14__bit_iteratorINS_6vectorIbNS_9allocatorIbEEEELb0ELm0EEESC_SC_Li0EEENS_4pairIT0_T2_EESE_T1_SF_, symObjAddr: 0x48A0, symBinAddr: 0x100006290, symSize: 0x15C }
  - { offsetInCU: 0x8990, offset: 0x8990, size: 0x8, addend: 0x0, symName: __ZNSt3__114__unwrap_rangeB8ue170006INS_14__bit_iteratorINS_6vectorIbNS_9allocatorIbEEEELb0ELm0EEES6_EENS_4pairIT0_S8_EET_SA_, symObjAddr: 0x49FC, symBinAddr: 0x1000063EC, symSize: 0x8C }
  - { offsetInCU: 0x8B4C, offset: 0x8B4C, size: 0x8, addend: 0x0, symName: __ZNSt3__113__unwrap_iterB8ue170006INS_14__bit_iteratorINS_6vectorIbNS_9allocatorIbEEEELb0ELm0EEENS_18__unwrap_iter_implIS6_Lb0EEELi0EEEDTclsrT0_8__unwrapclsr3stdE7declvalIT_EEEESA_, symObjAddr: 0x4B40, symBinAddr: 0x100006530, symSize: 0x44 }
  - { offsetInCU: 0x8B91, offset: 0x8B91, size: 0x8, addend: 0x0, symName: __ZNSt3__19make_pairB8ue170006INS_14__bit_iteratorINS_6vectorIbNS_9allocatorIbEEEELb0ELm0EEES6_EENS_4pairINS_18__unwrap_ref_decayIT_E4typeENS8_IT0_E4typeEEEOS9_OSC_, symObjAddr: 0x4B84, symBinAddr: 0x100006574, symSize: 0x40 }
  - { offsetInCU: 0x8BE0, offset: 0x8BE0, size: 0x8, addend: 0x0, symName: __ZNSt3__114__rewrap_rangeB8ue170006INS_14__bit_iteratorINS_6vectorIbNS_9allocatorIbEEEELb0ELm0EEES6_EET_S7_T0_, symObjAddr: 0x4BC4, symBinAddr: 0x1000065B4, symSize: 0x6C }
  - { offsetInCU: 0x8C2E, offset: 0x8C2E, size: 0x8, addend: 0x0, symName: __ZNSt3__113__rewrap_iterB8ue170006INS_14__bit_iteratorINS_6vectorIbNS_9allocatorIbEEEELb0ELm0EEES6_NS_18__unwrap_iter_implIS6_Lb0EEEEET_S9_T0_, symObjAddr: 0x4C30, symBinAddr: 0x100006620, symSize: 0x74 }
  - { offsetInCU: 0x8C85, offset: 0x8C85, size: 0x8, addend: 0x0, symName: __ZNSt3__1neB8ue170006ERKNS_14__bit_iteratorINS_6vectorIbNS_9allocatorIbEEEELb0ELm0EEES7_, symObjAddr: 0x4CA4, symBinAddr: 0x100006694, symSize: 0x34 }
  - { offsetInCU: 0x8CC2, offset: 0x8CC2, size: 0x8, addend: 0x0, symName: __ZNSt3__1eqB8ue170006ERKNS_14__bit_iteratorINS_6vectorIbNS_9allocatorIbEEEELb0ELm0EEES7_, symObjAddr: 0x4DB8, symBinAddr: 0x1000067A8, symSize: 0x64 }
  - { offsetInCU: 0x8D47, offset: 0x8D47, size: 0x8, addend: 0x0, symName: __ZNSt3__14swapB8ue170006IPmEENS_9enable_ifIXaasr21is_move_constructibleIT_EE5valuesr18is_move_assignableIS3_EE5valueEvE4typeERS3_S6_, symObjAddr: 0x4FAC, symBinAddr: 0x10000699C, symSize: 0x3C }
  - { offsetInCU: 0x8D98, offset: 0x8D98, size: 0x8, addend: 0x0, symName: __ZNSt3__14swapB8ue170006ImEENS_9enable_ifIXaasr21is_move_constructibleIT_EE5valuesr18is_move_assignableIS2_EE5valueEvE4typeERS2_S5_, symObjAddr: 0x4FE8, symBinAddr: 0x1000069D8, symSize: 0x3C }
  - { offsetInCU: 0x8DE9, offset: 0x8DE9, size: 0x8, addend: 0x0, symName: __ZNSt3__116__swap_allocatorB8ue170006INS_9allocatorImEEEEvRT_S4_NS_17integral_constantIbLb0EEE, symObjAddr: 0x5024, symBinAddr: 0x100006A14, symSize: 0x14 }
  - { offsetInCU: 0x8E2A, offset: 0x8E2A, size: 0x8, addend: 0x0, symName: __ZNSt3__13maxB8ue170006ImEERKT_S3_S3_, symObjAddr: 0x5038, symBinAddr: 0x100006A28, symSize: 0x2C }
  - { offsetInCU: 0x8E6D, offset: 0x8E6D, size: 0x8, addend: 0x0, symName: __ZNSt3__13maxB8ue170006ImNS_6__lessIvvEEEERKT_S5_S5_T0_, symObjAddr: 0x5080, symBinAddr: 0x100006A70, symSize: 0x54 }
  - { offsetInCU: 0x8F0C, offset: 0x8F0C, size: 0x8, addend: 0x0, symName: __ZNSt3__16__fillB8ue170006IPiiEEvT_S2_RKT0_NS_26random_access_iterator_tagE, symObjAddr: 0x5108, symBinAddr: 0x100006AF8, symSize: 0x44 }
  - { offsetInCU: 0x8F6C, offset: 0x8F6C, size: 0x8, addend: 0x0, symName: __ZNSt3__16fill_nB8ue170006IPiliEET_S2_T0_RKT1_, symObjAddr: 0x514C, symBinAddr: 0x100006B3C, symSize: 0x44 }
  - { offsetInCU: 0x8FCF, offset: 0x8FCF, size: 0x8, addend: 0x0, symName: __ZNSt3__18__fill_nB8ue170006IPiliEET_S2_T0_RKT1_, symObjAddr: 0x5190, symBinAddr: 0x100006B80, symSize: 0x64 }
  - { offsetInCU: 0x9032, offset: 0x9032, size: 0x8, addend: 0x0, symName: __ZNSt3__121__convert_to_integralB8ue170006El, symObjAddr: 0x51F4, symBinAddr: 0x100006BE4, symSize: 0x14 }
  - { offsetInCU: 0x905E, offset: 0x905E, size: 0x8, addend: 0x0, symName: __ZNSt3__16__copyB8ue170006INS_17_ClassicAlgPolicyENS_14__bit_iteratorINS_6vectorIbNS_9allocatorIbEEEELb1ELm0EEES7_NS2_IS6_Lb0ELm0EEEEENS_4pairIT0_T2_EESA_T1_SB_, symObjAddr: 0x5488, symBinAddr: 0x100006E78, symSize: 0x7C }
  - { offsetInCU: 0x90CB, offset: 0x90CB, size: 0x8, addend: 0x0, symName: __ZNSt3__123__dispatch_copy_or_moveB8ue170006INS_17_ClassicAlgPolicyENS_11__copy_loopIS1_EENS_14__copy_trivialENS_14__bit_iteratorINS_6vectorIbNS_9allocatorIbEEEELb1ELm0EEESA_NS5_IS9_Lb0ELm0EEEEENS_4pairIT2_T4_EESD_T3_SE_, symObjAddr: 0x5504, symBinAddr: 0x100006EF4, symSize: 0x7C }
  - { offsetInCU: 0x914A, offset: 0x914A, size: 0x8, addend: 0x0, symName: __ZNSt3__121__unwrap_and_dispatchB8ue170006INS_10__overloadINS_11__copy_loopINS_17_ClassicAlgPolicyEEENS_14__copy_trivialEEENS_14__bit_iteratorINS_6vectorIbNS_9allocatorIbEEEELb1ELm0EEESC_NS7_ISB_Lb0ELm0EEELi0EEENS_4pairIT0_T2_EESF_T1_SG_, symObjAddr: 0x5580, symBinAddr: 0x100006F70, symSize: 0x150 }
  - { offsetInCU: 0x91DB, offset: 0x91DB, size: 0x8, addend: 0x0, symName: __ZNSt3__114__unwrap_rangeB8ue170006INS_14__bit_iteratorINS_6vectorIbNS_9allocatorIbEEEELb1ELm0EEES6_EENS_4pairIT0_S8_EET_SA_, symObjAddr: 0x56D0, symBinAddr: 0x1000070C0, symSize: 0x84 }
  - { offsetInCU: 0x92FB, offset: 0x92FB, size: 0x8, addend: 0x0, symName: __ZNSt3__19make_pairB8ue170006INS_14__bit_iteratorINS_6vectorIbNS_9allocatorIbEEEELb1ELm0EEENS1_IS5_Lb0ELm0EEEEENS_4pairINS_18__unwrap_ref_decayIT_E4typeENS9_IT0_E4typeEEEOSA_OSD_, symObjAddr: 0x5818, symBinAddr: 0x100007208, symSize: 0x40 }
  - { offsetInCU: 0x934A, offset: 0x934A, size: 0x8, addend: 0x0, symName: __ZNSt3__114__rewrap_rangeB8ue170006INS_14__bit_iteratorINS_6vectorIbNS_9allocatorIbEEEELb1ELm0EEES6_EET_S7_T0_, symObjAddr: 0x5858, symBinAddr: 0x100007248, symSize: 0x5C }
  - { offsetInCU: 0x9396, offset: 0x9396, size: 0x8, addend: 0x0, symName: __ZNSt3__19make_pairB8ue170006INS_14__bit_iteratorINS_6vectorIbNS_9allocatorIbEEEELb1ELm0EEES6_EENS_4pairINS_18__unwrap_ref_decayIT_E4typeENS8_IT0_E4typeEEEOS9_OSC_, symObjAddr: 0x58B4, symBinAddr: 0x1000072A4, symSize: 0x38 }
  - { offsetInCU: 0x93E5, offset: 0x93E5, size: 0x8, addend: 0x0, symName: __ZNSt3__113__unwrap_iterB8ue170006INS_14__bit_iteratorINS_6vectorIbNS_9allocatorIbEEEELb1ELm0EEENS_18__unwrap_iter_implIS6_Lb0EEELi0EEEDTclsrT0_8__unwrapclsr3stdE7declvalIT_EEEESA_, symObjAddr: 0x58EC, symBinAddr: 0x1000072DC, symSize: 0x44 }
  - { offsetInCU: 0x9545, offset: 0x9545, size: 0x8, addend: 0x0, symName: __ZNSt3__1neB8ue170006ERKNS_14__bit_iteratorINS_6vectorIbNS_9allocatorIbEEEELb1ELm0EEES7_, symObjAddr: 0x59C4, symBinAddr: 0x1000073B4, symSize: 0x34 }
  - { offsetInCU: 0x9582, offset: 0x9582, size: 0x8, addend: 0x0, symName: __ZNSt3__1eqB8ue170006ERKNS_14__bit_iteratorINS_6vectorIbNS_9allocatorIbEEEELb1ELm0EEES7_, symObjAddr: 0x5AC4, symBinAddr: 0x1000074B4, symSize: 0x64 }
  - { offsetInCU: 0x95BF, offset: 0x95BF, size: 0x8, addend: 0x0, symName: __ZNSt3__113__rewrap_iterB8ue170006INS_14__bit_iteratorINS_6vectorIbNS_9allocatorIbEEEELb1ELm0EEES6_NS_18__unwrap_iter_implIS6_Lb0EEEEET_S9_T0_, symObjAddr: 0x5C14, symBinAddr: 0x100007604, symSize: 0x74 }
  - { offsetInCU: 0x99D0, offset: 0x99D0, size: 0x8, addend: 0x0, symName: __ZSt28__throw_bad_array_new_lengthB8ue170006v, symObjAddr: 0x2AB4, symBinAddr: 0x1000044A4, symSize: 0x34 }
  - { offsetInCU: 0xC370, offset: 0xC370, size: 0x8, addend: 0x0, symName: __Z11convToArrayyb, symObjAddr: 0x0, symBinAddr: 0x1000019F0, symSize: 0x1A0 }
  - { offsetInCU: 0xC42B, offset: 0xC42B, size: 0x8, addend: 0x0, symName: __ZNSt3__15arrayINS0_IiLm7EEELm7EEixB8ue170006Em, symObjAddr: 0x1A0, symBinAddr: 0x100001B90, symSize: 0x28 }
  - { offsetInCU: 0xC45F, offset: 0xC45F, size: 0x8, addend: 0x0, symName: __ZNSt3__15arrayIiLm7EEixB8ue170006Em, symObjAddr: 0x1C8, symBinAddr: 0x100001BB8, symSize: 0x20 }
  - { offsetInCU: 0xC493, offset: 0xC493, size: 0x8, addend: 0x0, symName: __ZNSt3__113basic_ostreamIcNS_11char_traitsIcEEElsB8ue170006EPFRS3_S4_E, symObjAddr: 0x230, symBinAddr: 0x100001C20, symSize: 0x2C }
  - { offsetInCU: 0xC4C6, offset: 0xC4C6, size: 0x8, addend: 0x0, symName: __Z14setIndentationi, symObjAddr: 0x2B4, symBinAddr: 0x100001CA4, symSize: 0x1C }
  - { offsetInCU: 0xC4EE, offset: 0xC4EE, size: 0x8, addend: 0x0, symName: __Z6indentRNSt3__113basic_ostreamIcNS_11char_traitsIcEEEE, symObjAddr: 0x2D0, symBinAddr: 0x100001CC0, symSize: 0x88 }
  - { offsetInCU: 0xC51B, offset: 0xC51B, size: 0x8, addend: 0x0, symName: __ZNSt3__112basic_stringIcNS_11char_traitsIcEENS_9allocatorIcEEEC1B8ue170006Emc, symObjAddr: 0x3A4, symBinAddr: 0x100001D94, symSize: 0x3C }
  - { offsetInCU: 0xC562, offset: 0xC562, size: 0x8, addend: 0x0, symName: __Z12printResultsNSt3__112basic_stringIcNS_11char_traitsIcEENS_9allocatorIcEEEENS_6vectorIbNS3_IbEEEE, symObjAddr: 0x3E0, symBinAddr: 0x100001DD0, symSize: 0x1EC }
  - { offsetInCU: 0xC5E2, offset: 0xC5E2, size: 0x8, addend: 0x0, symName: __ZNKSt3__16vectorIbNS_9allocatorIbEEE4sizeB8ue170006Ev, symObjAddr: 0x5CC, symBinAddr: 0x100001FBC, symSize: 0x18 }
  - { offsetInCU: 0xC608, offset: 0xC608, size: 0x8, addend: 0x0, symName: __ZNSt3__16vectorIbNS_9allocatorIbEEEixB8ue170006Em, symObjAddr: 0x5E4, symBinAddr: 0x100001FD4, symSize: 0x3C }
  - { offsetInCU: 0xC63D, offset: 0xC63D, size: 0x8, addend: 0x0, symName: __ZNKSt3__115__bit_referenceINS_6vectorIbNS_9allocatorIbEEEELb1EEcvbB8ue170006Ev, symObjAddr: 0x620, symBinAddr: 0x100002010, symSize: 0x2C }
  - { offsetInCU: 0xC662, offset: 0xC662, size: 0x8, addend: 0x0, symName: __Z16testconvToBinaryb, symObjAddr: 0x768, symBinAddr: 0x100002158, symSize: 0x38C }
  - { offsetInCU: 0xC762, offset: 0xC762, size: 0x8, addend: 0x0, symName: __ZNSt3__16vectorIbNS_9allocatorIbEEEC1B8ue170006Ev, symObjAddr: 0xAF4, symBinAddr: 0x1000024E4, symSize: 0x2C }
  - { offsetInCU: 0xC78D, offset: 0xC78D, size: 0x8, addend: 0x0, symName: __Z12convToBinaryIiLm7ELm7EEyNSt3__15arrayINS1_IT_XT1_EEEXT0_EEEb, symObjAddr: 0xB74, symBinAddr: 0x100002564, symSize: 0x1E4 }
  - { offsetInCU: 0xC880, offset: 0xC880, size: 0x8, addend: 0x0, symName: __ZNSt3__16vectorIbNS_9allocatorIbEEE9push_backERKb, symObjAddr: 0xD58, symBinAddr: 0x100002748, symSize: 0xA4 }
  - { offsetInCU: 0xC8B6, offset: 0xC8B6, size: 0x8, addend: 0x0, symName: __Z6resultIbEbRT_S1_Rib, symObjAddr: 0xDFC, symBinAddr: 0x1000027EC, symSize: 0x1D0 }
  - { offsetInCU: 0xC916, offset: 0xC916, size: 0x8, addend: 0x0, symName: __ZNSt3__15arrayINS0_IiLm7EEELm7EE5beginB8ue170006Ev, symObjAddr: 0xFCC, symBinAddr: 0x1000029BC, symSize: 0x24 }
  - { offsetInCU: 0xC93C, offset: 0xC93C, size: 0x8, addend: 0x0, symName: __ZNSt3__15arrayINS0_IiLm7EEELm7EE3endB8ue170006Ev, symObjAddr: 0xFF0, symBinAddr: 0x1000029E0, symSize: 0x28 }
  - { offsetInCU: 0xC962, offset: 0xC962, size: 0x8, addend: 0x0, symName: __ZNSt3__15arrayIiLm7EE5beginB8ue170006Ev, symObjAddr: 0x104C, symBinAddr: 0x100002A3C, symSize: 0x24 }
  - { offsetInCU: 0xC988, offset: 0xC988, size: 0x8, addend: 0x0, symName: __ZNSt3__15arrayIiLm7EE3endB8ue170006Ev, symObjAddr: 0x1070, symBinAddr: 0x100002A60, symSize: 0x28 }
  - { offsetInCU: 0xC9AD, offset: 0xC9AD, size: 0x8, addend: 0x0, symName: __Z5floorB8ue170006IiENSt3__19enable_ifIXsr3std11is_integralIT_EE5valueEdE4typeES2_, symObjAddr: 0x1098, symBinAddr: 0x100002A88, symSize: 0x24 }
  - { offsetInCU: 0xC9EA, offset: 0xC9EA, size: 0x8, addend: 0x0, symName: __ZNSt3__112basic_stringIcNS_11char_traitsIcEENS_9allocatorIcEEEC1B8ue170006ILi0EEEPKc, symObjAddr: 0x10BC, symBinAddr: 0x100002AAC, symSize: 0x34 }
  - { offsetInCU: 0xCA29, offset: 0xCA29, size: 0x8, addend: 0x0, symName: __ZNSt3__16vectorIbNS_9allocatorIbEEEC1ERKS3_, symObjAddr: 0x10F0, symBinAddr: 0x100002AE0, symSize: 0x34 }
  - { offsetInCU: 0xCA64, offset: 0xCA64, size: 0x8, addend: 0x0, symName: __ZNSt3__16vectorIbNS_9allocatorIbEEED1B8ue170006Ev, symObjAddr: 0x1124, symBinAddr: 0x100002B14, symSize: 0x2C }
  - { offsetInCU: 0xCA8D, offset: 0xCA8D, size: 0x8, addend: 0x0, symName: __Z15randPlayerBoardv, symObjAddr: 0x1150, symBinAddr: 0x100002B40, symSize: 0x124 }
  - { offsetInCU: 0xCB2E, offset: 0xCB2E, size: 0x8, addend: 0x0, symName: __ZNSt3__15arrayINS0_IiLm7EEELm6EEixB8ue170006Em, symObjAddr: 0x1274, symBinAddr: 0x100002C64, symSize: 0x28 }
  - { offsetInCU: 0xCB61, offset: 0xCB61, size: 0x8, addend: 0x0, symName: __Z12convToBinaryIiLm6ELm7EEyNSt3__15arrayINS1_IT_XT1_EEEXT0_EEEb, symObjAddr: 0x129C, symBinAddr: 0x100002C8C, symSize: 0x1E4 }
  - { offsetInCU: 0xCC54, offset: 0xCC54, size: 0x8, addend: 0x0, symName: __Z7testAllv, symObjAddr: 0x1480, symBinAddr: 0x100002E70, symSize: 0x58 }
  - { offsetInCU: 0xCC6E, offset: 0xCC6E, size: 0x8, addend: 0x0, symName: _main, symObjAddr: 0x14D8, symBinAddr: 0x100002EC8, symSize: 0x40 }
  - { offsetInCU: 0xCC88, offset: 0xCC88, size: 0x8, addend: 0x0, symName: __ZNSt3__15arrayINS0_IiLm7EEELm7EE4dataB8ue170006Ev, symObjAddr: 0x1518, symBinAddr: 0x100002F08, symSize: 0x14 }
  - { offsetInCU: 0xCCAE, offset: 0xCCAE, size: 0x8, addend: 0x0, symName: __ZNSt3__15arrayIiLm7EE4dataB8ue170006Ev, symObjAddr: 0x152C, symBinAddr: 0x100002F1C, symSize: 0x14 }
  - { offsetInCU: 0xCCD4, offset: 0xCCD4, size: 0x8, addend: 0x0, symName: __ZNSt3__112basic_stringIcNS_11char_traitsIcEENS_9allocatorIcEEEC2B8ue170006ILi0EEEPKc, symObjAddr: 0x1540, symBinAddr: 0x100002F30, symSize: 0x58 }
  - { offsetInCU: 0xCD18, offset: 0xCD18, size: 0x8, addend: 0x0, symName: __ZNSt3__117__compressed_pairINS_12basic_stringIcNS_11char_traitsIcEENS_9allocatorIcEEE5__repES5_EC1B8ue170006INS_18__default_init_tagESA_EEOT_OT0_, symObjAddr: 0x1598, symBinAddr: 0x100002F88, symSize: 0x3C }
  - { offsetInCU: 0xCD70, offset: 0xCD70, size: 0x8, addend: 0x0, symName: __ZNSt3__111char_traitsIcE6lengthB8ue170006EPKc, symObjAddr: 0x15D4, symBinAddr: 0x100002FC4, symSize: 0x34 }
  - { offsetInCU: 0xCD93, offset: 0xCD93, size: 0x8, addend: 0x0, symName: __ZNSt3__117__compressed_pairINS_12basic_stringIcNS_11char_traitsIcEENS_9allocatorIcEEE5__repES5_EC2B8ue170006INS_18__default_init_tagESA_EEOT_OT0_, symObjAddr: 0x1608, symBinAddr: 0x100002FF8, symSize: 0x3C }
  - { offsetInCU: 0xCDEB, offset: 0xCDEB, size: 0x8, addend: 0x0, symName: __ZNSt3__122__compressed_pair_elemINS_12basic_stringIcNS_11char_traitsIcEENS_9allocatorIcEEE5__repELi0ELb0EEC2B8ue170006ENS_18__default_init_tagE, symObjAddr: 0x1644, symBinAddr: 0x100003034, symSize: 0x14 }
  - { offsetInCU: 0xCE1F, offset: 0xCE1F, size: 0x8, addend: 0x0, symName: __ZNSt3__122__compressed_pair_elemINS_9allocatorIcEELi1ELb1EEC2B8ue170006ENS_18__default_init_tagE, symObjAddr: 0x1658, symBinAddr: 0x100003048, symSize: 0x2C }
  - { offsetInCU: 0xCE53, offset: 0xCE53, size: 0x8, addend: 0x0, symName: __ZNSt3__19allocatorIcEC2B8ue170006Ev, symObjAddr: 0x1684, symBinAddr: 0x100003074, symSize: 0x2C }
  - { offsetInCU: 0xCE7D, offset: 0xCE7D, size: 0x8, addend: 0x0, symName: __ZNSt3__116__non_trivial_ifILb1ENS_9allocatorIcEEEC2B8ue170006Ev, symObjAddr: 0x16B0, symBinAddr: 0x1000030A0, symSize: 0x14 }
  - { offsetInCU: 0xCEC5, offset: 0xCEC5, size: 0x8, addend: 0x0, symName: __ZNKSt3__113basic_ostreamIcNS_11char_traitsIcEEE6sentrycvbB8ue170006Ev, symObjAddr: 0x18E0, symBinAddr: 0x1000032D0, symSize: 0x1C }
  - { offsetInCU: 0xCEEB, offset: 0xCEEB, size: 0x8, addend: 0x0, symName: __ZNSt3__119ostreambuf_iteratorIcNS_11char_traitsIcEEEC1B8ue170006ERNS_13basic_ostreamIcS2_EE, symObjAddr: 0x1B3C, symBinAddr: 0x10000352C, symSize: 0x34 }
  - { offsetInCU: 0xCF23, offset: 0xCF23, size: 0x8, addend: 0x0, symName: __ZNKSt3__18ios_base5flagsB8ue170006Ev, symObjAddr: 0x1B70, symBinAddr: 0x100003560, symSize: 0x18 }
  - { offsetInCU: 0xCF4B, offset: 0xCF4B, size: 0x8, addend: 0x0, symName: __ZNKSt3__19basic_iosIcNS_11char_traitsIcEEE4fillB8ue170006Ev, symObjAddr: 0x1B88, symBinAddr: 0x100003578, symSize: 0x64 }
  - { offsetInCU: 0xCF73, offset: 0xCF73, size: 0x8, addend: 0x0, symName: __ZNKSt3__119ostreambuf_iteratorIcNS_11char_traitsIcEEE6failedB8ue170006Ev, symObjAddr: 0x1BEC, symBinAddr: 0x1000035DC, symSize: 0x24 }
  - { offsetInCU: 0xCF99, offset: 0xCF99, size: 0x8, addend: 0x0, symName: __ZNSt3__19basic_iosIcNS_11char_traitsIcEEE8setstateB8ue170006Ej, symObjAddr: 0x1C10, symBinAddr: 0x100003600, symSize: 0x2C }
  - { offsetInCU: 0xCFCE, offset: 0xCFCE, size: 0x8, addend: 0x0, symName: __ZNKSt3__18ios_base5widthB8ue170006Ev, symObjAddr: 0x1C3C, symBinAddr: 0x10000362C, symSize: 0x18 }
  - { offsetInCU: 0xCFF6, offset: 0xCFF6, size: 0x8, addend: 0x0, symName: __ZNSt3__115basic_streambufIcNS_11char_traitsIcEEE5sputnB8ue170006EPKcl, symObjAddr: 0x1C54, symBinAddr: 0x100003644, symSize: 0x3C }
  - { offsetInCU: 0xD038, offset: 0xD038, size: 0x8, addend: 0x0, symName: __ZNSt3__112basic_stringIcNS_11char_traitsIcEENS_9allocatorIcEEE4dataB8ue170006Ev, symObjAddr: 0x1C90, symBinAddr: 0x100003680, symSize: 0x28 }
  - { offsetInCU: 0xD05E, offset: 0xD05E, size: 0x8, addend: 0x0, symName: __ZNSt3__18ios_base5widthB8ue170006El, symObjAddr: 0x1CB8, symBinAddr: 0x1000036A8, symSize: 0x2C }
  - { offsetInCU: 0xD0A4, offset: 0xD0A4, size: 0x8, addend: 0x0, symName: __ZNSt3__112basic_stringIcNS_11char_traitsIcEENS_9allocatorIcEEE13__get_pointerB8ue170006Ev, symObjAddr: 0x1CF8, symBinAddr: 0x1000036E8, symSize: 0x54 }
  - { offsetInCU: 0xD0CA, offset: 0xD0CA, size: 0x8, addend: 0x0, symName: __ZNKSt3__112basic_stringIcNS_11char_traitsIcEENS_9allocatorIcEEE9__is_longB8ue170006Ev, symObjAddr: 0x1D4C, symBinAddr: 0x10000373C, symSize: 0x38 }
  - { offsetInCU: 0xD0F0, offset: 0xD0F0, size: 0x8, addend: 0x0, symName: __ZNSt3__112basic_stringIcNS_11char_traitsIcEENS_9allocatorIcEEE18__get_long_pointerB8ue170006Ev, symObjAddr: 0x1D84, symBinAddr: 0x100003774, symSize: 0x28 }
  - { offsetInCU: 0xD116, offset: 0xD116, size: 0x8, addend: 0x0, symName: __ZNSt3__112basic_stringIcNS_11char_traitsIcEENS_9allocatorIcEEE19__get_short_pointerB8ue170006Ev, symObjAddr: 0x1DAC, symBinAddr: 0x10000379C, symSize: 0x28 }
  - { offsetInCU: 0xD13C, offset: 0xD13C, size: 0x8, addend: 0x0, symName: __ZNKSt3__117__compressed_pairINS_12basic_stringIcNS_11char_traitsIcEENS_9allocatorIcEEE5__repES5_E5firstB8ue170006Ev, symObjAddr: 0x1DD4, symBinAddr: 0x1000037C4, symSize: 0x24 }
  - { offsetInCU: 0xD162, offset: 0xD162, size: 0x8, addend: 0x0, symName: __ZNKSt3__122__compressed_pair_elemINS_12basic_stringIcNS_11char_traitsIcEENS_9allocatorIcEEE5__repELi0ELb0EE5__getB8ue170006Ev, symObjAddr: 0x1DF8, symBinAddr: 0x1000037E8, symSize: 0x14 }
  - { offsetInCU: 0xD188, offset: 0xD188, size: 0x8, addend: 0x0, symName: __ZNSt3__117__compressed_pairINS_12basic_stringIcNS_11char_traitsIcEENS_9allocatorIcEEE5__repES5_E5firstB8ue170006Ev, symObjAddr: 0x1E0C, symBinAddr: 0x1000037FC, symSize: 0x24 }
  - { offsetInCU: 0xD1AE, offset: 0xD1AE, size: 0x8, addend: 0x0, symName: __ZNSt3__122__compressed_pair_elemINS_12basic_stringIcNS_11char_traitsIcEENS_9allocatorIcEEE5__repELi0ELb0EE5__getB8ue170006Ev, symObjAddr: 0x1E30, symBinAddr: 0x100003820, symSize: 0x14 }
  - { offsetInCU: 0xD1D4, offset: 0xD1D4, size: 0x8, addend: 0x0, symName: __ZNSt3__114pointer_traitsIPcE10pointer_toB8ue170006ERc, symObjAddr: 0x1E44, symBinAddr: 0x100003834, symSize: 0x14 }
  - { offsetInCU: 0xD1F7, offset: 0xD1F7, size: 0x8, addend: 0x0, symName: __ZNSt3__119ostreambuf_iteratorIcNS_11char_traitsIcEEEC2B8ue170006ERNS_13basic_ostreamIcS2_EE, symObjAddr: 0x1E58, symBinAddr: 0x100003848, symSize: 0x54 }
  - { offsetInCU: 0xD22F, offset: 0xD22F, size: 0x8, addend: 0x0, symName: __ZNKSt3__19basic_iosIcNS_11char_traitsIcEEE5rdbufB8ue170006Ev, symObjAddr: 0x1EAC, symBinAddr: 0x10000389C, symSize: 0x24 }
  - { offsetInCU: 0xD257, offset: 0xD257, size: 0x8, addend: 0x0, symName: __ZNKSt3__18ios_base5rdbufB8ue170006Ev, symObjAddr: 0x1ED0, symBinAddr: 0x1000038C0, symSize: 0x18 }
  - { offsetInCU: 0xD27D, offset: 0xD27D, size: 0x8, addend: 0x0, symName: __ZNSt3__111char_traitsIcE11eq_int_typeB8ue170006Eii, symObjAddr: 0x1EE8, symBinAddr: 0x1000038D8, symSize: 0x28 }
  - { offsetInCU: 0xD2B0, offset: 0xD2B0, size: 0x8, addend: 0x0, symName: __ZNSt3__111char_traitsIcE3eofB8ue170006Ev, symObjAddr: 0x1F10, symBinAddr: 0x100003900, symSize: 0x8 }
  - { offsetInCU: 0xD2C4, offset: 0xD2C4, size: 0x8, addend: 0x0, symName: __ZNKSt3__19basic_iosIcNS_11char_traitsIcEEE5widenB8ue170006Ec, symObjAddr: 0x1F18, symBinAddr: 0x100003908, symSize: 0x84 }
  - { offsetInCU: 0xD32D, offset: 0xD32D, size: 0x8, addend: 0x0, symName: __ZNKSt3__15ctypeIcE5widenB8ue170006Ec, symObjAddr: 0x1FC8, symBinAddr: 0x1000039B8, symSize: 0x38 }
  - { offsetInCU: 0xD362, offset: 0xD362, size: 0x8, addend: 0x0, symName: __ZNSt3__18ios_base8setstateB8ue170006Ej, symObjAddr: 0x2000, symBinAddr: 0x1000039F0, symSize: 0x34 }
  - { offsetInCU: 0xD399, offset: 0xD399, size: 0x8, addend: 0x0, symName: __ZNSt3__112basic_stringIcNS_11char_traitsIcEENS_9allocatorIcEEEC2B8ue170006Emc, symObjAddr: 0x2034, symBinAddr: 0x100003A24, symSize: 0x4C }
  - { offsetInCU: 0xD3E1, offset: 0xD3E1, size: 0x8, addend: 0x0, symName: __ZNKSt3__112basic_stringIcNS_11char_traitsIcEENS_9allocatorIcEEE4dataB8ue170006Ev, symObjAddr: 0x2080, symBinAddr: 0x100003A70, symSize: 0x28 }
  - { offsetInCU: 0xD407, offset: 0xD407, size: 0x8, addend: 0x0, symName: __ZNKSt3__112basic_stringIcNS_11char_traitsIcEENS_9allocatorIcEEE4sizeB8ue170006Ev, symObjAddr: 0x20A8, symBinAddr: 0x100003A98, symSize: 0x54 }
  - { offsetInCU: 0xD42D, offset: 0xD42D, size: 0x8, addend: 0x0, symName: __ZNKSt3__112basic_stringIcNS_11char_traitsIcEENS_9allocatorIcEEE13__get_pointerB8ue170006Ev, symObjAddr: 0x2110, symBinAddr: 0x100003B00, symSize: 0x54 }
  - { offsetInCU: 0xD453, offset: 0xD453, size: 0x8, addend: 0x0, symName: __ZNKSt3__112basic_stringIcNS_11char_traitsIcEENS_9allocatorIcEEE18__get_long_pointerB8ue170006Ev, symObjAddr: 0x2164, symBinAddr: 0x100003B54, symSize: 0x28 }
  - { offsetInCU: 0xD479, offset: 0xD479, size: 0x8, addend: 0x0, symName: __ZNKSt3__112basic_stringIcNS_11char_traitsIcEENS_9allocatorIcEEE19__get_short_pointerB8ue170006Ev, symObjAddr: 0x218C, symBinAddr: 0x100003B7C, symSize: 0x28 }
  - { offsetInCU: 0xD49F, offset: 0xD49F, size: 0x8, addend: 0x0, symName: __ZNSt3__114pointer_traitsIPKcE10pointer_toB8ue170006ERS1_, symObjAddr: 0x21B4, symBinAddr: 0x100003BA4, symSize: 0x14 }
  - { offsetInCU: 0xD4C2, offset: 0xD4C2, size: 0x8, addend: 0x0, symName: __ZNKSt3__112basic_stringIcNS_11char_traitsIcEENS_9allocatorIcEEE15__get_long_sizeB8ue170006Ev, symObjAddr: 0x21C8, symBinAddr: 0x100003BB8, symSize: 0x28 }
  - { offsetInCU: 0xD4E8, offset: 0xD4E8, size: 0x8, addend: 0x0, symName: __ZNKSt3__112basic_stringIcNS_11char_traitsIcEENS_9allocatorIcEEE16__get_short_sizeB8ue170006Ev, symObjAddr: 0x21F0, symBinAddr: 0x100003BE0, symSize: 0x34 }
  - { offsetInCU: 0xD50E, offset: 0xD50E, size: 0x8, addend: 0x0, symName: __ZNSt3__16vectorIbNS_9allocatorIbEEE10__make_refB8ue170006Em, symObjAddr: 0x2224, symBinAddr: 0x100003C14, symSize: 0x60 }
  - { offsetInCU: 0xD543, offset: 0xD543, size: 0x8, addend: 0x0, symName: __ZNSt3__115__bit_referenceINS_6vectorIbNS_9allocatorIbEEEELb1EEC1B8ue170006EPmm, symObjAddr: 0x2284, symBinAddr: 0x100003C74, symSize: 0x3C }
  - { offsetInCU: 0xD589, offset: 0xD589, size: 0x8, addend: 0x0, symName: __ZNSt3__115__bit_referenceINS_6vectorIbNS_9allocatorIbEEEELb1EEC2B8ue170006EPmm, symObjAddr: 0x22C0, symBinAddr: 0x100003CB0, symSize: 0x2C }
  - { offsetInCU: 0xD5D9, offset: 0xD5D9, size: 0x8, addend: 0x0, symName: __ZNSt3__116allocator_traitsINS_9allocatorIcEEE37select_on_container_copy_constructionB8ue170006IS2_vvEES2_RKS2_, symObjAddr: 0x22EC, symBinAddr: 0x100003CDC, symSize: 0x10 }
  - { offsetInCU: 0xD608, offset: 0xD608, size: 0x8, addend: 0x0, symName: __ZNKSt3__112basic_stringIcNS_11char_traitsIcEENS_9allocatorIcEEE13get_allocatorB8ue170006Ev, symObjAddr: 0x22FC, symBinAddr: 0x100003CEC, symSize: 0x24 }
  - { offsetInCU: 0xD62E, offset: 0xD62E, size: 0x8, addend: 0x0, symName: __ZNSt3__112basic_stringIcNS_11char_traitsIcEENS_9allocatorIcEEEC1B8ue170006ENS_24__uninitialized_size_tagEmRKS4_, symObjAddr: 0x2320, symBinAddr: 0x100003D10, symSize: 0x3C }
  - { offsetInCU: 0xD682, offset: 0xD682, size: 0x8, addend: 0x0, symName: __ZNSt3__111char_traitsIcE4copyB8ue170006EPcPKcm, symObjAddr: 0x235C, symBinAddr: 0x100003D4C, symSize: 0x40 }
  - { offsetInCU: 0xD6C1, offset: 0xD6C1, size: 0x8, addend: 0x0, symName: __ZNSt3__111char_traitsIcE6assignB8ue170006EPcmc, symObjAddr: 0x239C, symBinAddr: 0x100003D8C, symSize: 0x44 }
  - { offsetInCU: 0xD700, offset: 0xD700, size: 0x8, addend: 0x0, symName: __ZNKSt3__112basic_stringIcNS_11char_traitsIcEENS_9allocatorIcEEE7__allocB8ue170006Ev, symObjAddr: 0x23E0, symBinAddr: 0x100003DD0, symSize: 0x24 }
  - { offsetInCU: 0xD726, offset: 0xD726, size: 0x8, addend: 0x0, symName: __ZNKSt3__117__compressed_pairINS_12basic_stringIcNS_11char_traitsIcEENS_9allocatorIcEEE5__repES5_E6secondB8ue170006Ev, symObjAddr: 0x2404, symBinAddr: 0x100003DF4, symSize: 0x24 }
  - { offsetInCU: 0xD74C, offset: 0xD74C, size: 0x8, addend: 0x0, symName: __ZNKSt3__122__compressed_pair_elemINS_9allocatorIcEELi1ELb1EE5__getB8ue170006Ev, symObjAddr: 0x2428, symBinAddr: 0x100003E18, symSize: 0x14 }
  - { offsetInCU: 0xD772, offset: 0xD772, size: 0x8, addend: 0x0, symName: __ZNSt3__112basic_stringIcNS_11char_traitsIcEENS_9allocatorIcEEEC2B8ue170006ENS_24__uninitialized_size_tagEmRKS4_, symObjAddr: 0x243C, symBinAddr: 0x100003E2C, symSize: 0x110 }
  - { offsetInCU: 0xD7F2, offset: 0xD7F2, size: 0x8, addend: 0x0, symName: __ZNSt3__117__compressed_pairINS_12basic_stringIcNS_11char_traitsIcEENS_9allocatorIcEEE5__repES5_EC1B8ue170006INS_18__default_init_tagERKS5_EEOT_OT0_, symObjAddr: 0x254C, symBinAddr: 0x100003F3C, symSize: 0x3C }
  - { offsetInCU: 0xD84A, offset: 0xD84A, size: 0x8, addend: 0x0, symName: __ZNKSt3__112basic_stringIcNS_11char_traitsIcEENS_9allocatorIcEEE8max_sizeB8ue170006Ev, symObjAddr: 0x2588, symBinAddr: 0x100003F78, symSize: 0xAC }
  - { offsetInCU: 0xD89C, offset: 0xD89C, size: 0x8, addend: 0x0, symName: __ZNKSt3__112basic_stringIcNS_11char_traitsIcEENS_9allocatorIcEEE20__throw_length_errorB8ue170006Ev, symObjAddr: 0x2634, symBinAddr: 0x100004024, symSize: 0x1C }
  - { offsetInCU: 0xD8C2, offset: 0xD8C2, size: 0x8, addend: 0x0, symName: __ZNSt3__112basic_stringIcNS_11char_traitsIcEENS_9allocatorIcEEE13__fits_in_ssoB8ue170006Em, symObjAddr: 0x2650, symBinAddr: 0x100004040, symSize: 0x20 }
  - { offsetInCU: 0xD8E6, offset: 0xD8E6, size: 0x8, addend: 0x0, symName: __ZNSt3__112basic_stringIcNS_11char_traitsIcEENS_9allocatorIcEEE16__set_short_sizeB8ue170006Em, symObjAddr: 0x2670, symBinAddr: 0x100004060, symSize: 0x78 }
  - { offsetInCU: 0xD91B, offset: 0xD91B, size: 0x8, addend: 0x0, symName: __ZNSt3__112basic_stringIcNS_11char_traitsIcEENS_9allocatorIcEEE11__recommendB8ue170006Em, symObjAddr: 0x26E8, symBinAddr: 0x1000040D8, symSize: 0x84 }
  - { offsetInCU: 0xD94E, offset: 0xD94E, size: 0x8, addend: 0x0, symName: __ZNSt3__116allocator_traitsINS_9allocatorIcEEE8allocateB8ue170006ERS2_m, symObjAddr: 0x276C, symBinAddr: 0x10000415C, symSize: 0x2C }
  - { offsetInCU: 0xD981, offset: 0xD981, size: 0x8, addend: 0x0, symName: __ZNSt3__112basic_stringIcNS_11char_traitsIcEENS_9allocatorIcEEE7__allocB8ue170006Ev, symObjAddr: 0x2798, symBinAddr: 0x100004188, symSize: 0x24 }
  - { offsetInCU: 0xD9A7, offset: 0xD9A7, size: 0x8, addend: 0x0, symName: __ZNSt3__112basic_stringIcNS_11char_traitsIcEENS_9allocatorIcEEE16__begin_lifetimeB8ue170006EPcm, symObjAddr: 0x27BC, symBinAddr: 0x1000041AC, symSize: 0x14 }
  - { offsetInCU: 0xD9DA, offset: 0xD9DA, size: 0x8, addend: 0x0, symName: __ZNSt3__112basic_stringIcNS_11char_traitsIcEENS_9allocatorIcEEE14__set_long_capB8ue170006Em, symObjAddr: 0x27D0, symBinAddr: 0x1000041C0, symSize: 0x70 }
  - { offsetInCU: 0xDA0F, offset: 0xDA0F, size: 0x8, addend: 0x0, symName: __ZNSt3__112basic_stringIcNS_11char_traitsIcEENS_9allocatorIcEEE18__set_long_pointerB8ue170006EPc, symObjAddr: 0x2840, symBinAddr: 0x100004230, symSize: 0x38 }
  - { offsetInCU: 0xDA44, offset: 0xDA44, size: 0x8, addend: 0x0, symName: __ZNSt3__112basic_stringIcNS_11char_traitsIcEENS_9allocatorIcEEE15__set_long_sizeB8ue170006Em, symObjAddr: 0x2878, symBinAddr: 0x100004268, symSize: 0x38 }
  - { offsetInCU: 0xDA79, offset: 0xDA79, size: 0x8, addend: 0x0, symName: __ZNSt3__117__compressed_pairINS_12basic_stringIcNS_11char_traitsIcEENS_9allocatorIcEEE5__repES5_EC2B8ue170006INS_18__default_init_tagERKS5_EEOT_OT0_, symObjAddr: 0x28B0, symBinAddr: 0x1000042A0, symSize: 0x40 }
  - { offsetInCU: 0xDAD1, offset: 0xDAD1, size: 0x8, addend: 0x0, symName: __ZNSt3__122__compressed_pair_elemINS_9allocatorIcEELi1ELb1EEC2B8ue170006IRKS2_vEEOT_, symObjAddr: 0x28F0, symBinAddr: 0x1000042E0, symSize: 0x18 }
  - { offsetInCU: 0xDB13, offset: 0xDB13, size: 0x8, addend: 0x0, symName: __ZNSt3__116allocator_traitsINS_9allocatorIcEEE8max_sizeB8ue170006IS2_vEEmRKS2_, symObjAddr: 0x2908, symBinAddr: 0x1000042F8, symSize: 0x24 }
  - { offsetInCU: 0xDB41, offset: 0xDB41, size: 0x8, addend: 0x0, symName: __ZNSt3__114numeric_limitsImE3maxB8ue170006Ev, symObjAddr: 0x292C, symBinAddr: 0x10000431C, symSize: 0x14 }
  - { offsetInCU: 0xDB55, offset: 0xDB55, size: 0x8, addend: 0x0, symName: __ZNKSt3__19allocatorIcE8max_sizeB8ue170006Ev, symObjAddr: 0x2940, symBinAddr: 0x100004330, symSize: 0x14 }
  - { offsetInCU: 0xDB7B, offset: 0xDB7B, size: 0x8, addend: 0x0, symName: __ZNSt3__123__libcpp_numeric_limitsImLb1EE3maxB8ue170006Ev, symObjAddr: 0x2954, symBinAddr: 0x100004344, symSize: 0x8 }
  - { offsetInCU: 0xDB8F, offset: 0xDB8F, size: 0x8, addend: 0x0, symName: __ZNSt12length_errorC1B8ue170006EPKc, symObjAddr: 0x29C0, symBinAddr: 0x1000043B0, symSize: 0x34 }
  - { offsetInCU: 0xDBC7, offset: 0xDBC7, size: 0x8, addend: 0x0, symName: __ZNSt12length_errorC2B8ue170006EPKc, symObjAddr: 0x29F4, symBinAddr: 0x1000043E4, symSize: 0x4C }
  - { offsetInCU: 0xDBFF, offset: 0xDBFF, size: 0x8, addend: 0x0, symName: __ZNSt3__112basic_stringIcNS_11char_traitsIcEENS_9allocatorIcEEE10__align_itB8ue170006ILm16EEEmm, symObjAddr: 0x2A40, symBinAddr: 0x100004430, symSize: 0x1C }
  - { offsetInCU: 0xDC2D, offset: 0xDC2D, size: 0x8, addend: 0x0, symName: __ZNSt3__19allocatorIcE8allocateB8ue170006Em, symObjAddr: 0x2A5C, symBinAddr: 0x10000444C, symSize: 0x58 }
  - { offsetInCU: 0xDC61, offset: 0xDC61, size: 0x8, addend: 0x0, symName: __ZNSt3__117__compressed_pairINS_12basic_stringIcNS_11char_traitsIcEENS_9allocatorIcEEE5__repES5_E6secondB8ue170006Ev, symObjAddr: 0x2BB8, symBinAddr: 0x1000045A8, symSize: 0x24 }
  - { offsetInCU: 0xDC87, offset: 0xDC87, size: 0x8, addend: 0x0, symName: __ZNSt3__122__compressed_pair_elemINS_9allocatorIcEELi1ELb1EE5__getB8ue170006Ev, symObjAddr: 0x2BDC, symBinAddr: 0x1000045CC, symSize: 0x14 }
  - { offsetInCU: 0xDCD0, offset: 0xDCD0, size: 0x8, addend: 0x0, symName: __ZNKSt3__114__copy_trivialclB8ue170006IKccLi0EEENS_4pairIPT_PT0_EES5_S5_S7_, symObjAddr: 0x2E10, symBinAddr: 0x100004800, symSize: 0x48 }
  - { offsetInCU: 0xDD56, offset: 0xDD56, size: 0x8, addend: 0x0, symName: __ZNSt3__14pairIPKcS2_EC1B8ue170006IS2_S2_LPv0EEEOT_OT0_, symObjAddr: 0x2F78, symBinAddr: 0x100004968, symSize: 0x3C }
  - { offsetInCU: 0xDDB4, offset: 0xDDB4, size: 0x8, addend: 0x0, symName: __ZNSt3__14pairIPKcS2_EC2B8ue170006IS2_S2_LPv0EEEOT_OT0_, symObjAddr: 0x2FB4, symBinAddr: 0x1000049A4, symSize: 0x34 }
  - { offsetInCU: 0xDE12, offset: 0xDE12, size: 0x8, addend: 0x0, symName: __ZNSt3__118__unwrap_iter_implIPKcLb1EE8__unwrapB8ue170006ES2_, symObjAddr: 0x2FE8, symBinAddr: 0x1000049D8, symSize: 0x24 }
  - { offsetInCU: 0xDE3F, offset: 0xDE3F, size: 0x8, addend: 0x0, symName: __ZNSt3__14pairIPKcPcEC1B8ue170006IRS2_S3_LPv0EEEOT_OT0_, symObjAddr: 0x3120, symBinAddr: 0x100004B10, symSize: 0x3C }
  - { offsetInCU: 0xDE9D, offset: 0xDE9D, size: 0x8, addend: 0x0, symName: __ZNSt3__14pairIPKcPcEC2B8ue170006IRS2_S3_LPv0EEEOT_OT0_, symObjAddr: 0x315C, symBinAddr: 0x100004B4C, symSize: 0x34 }
  - { offsetInCU: 0xDEFB, offset: 0xDEFB, size: 0x8, addend: 0x0, symName: __ZNSt3__118__unwrap_iter_implIPcLb1EE8__unwrapB8ue170006ES1_, symObjAddr: 0x3190, symBinAddr: 0x100004B80, symSize: 0x24 }
  - { offsetInCU: 0xDF1E, offset: 0xDF1E, size: 0x8, addend: 0x0, symName: __ZNSt3__14pairIPKcPcEC1B8ue170006IS2_S3_LPv0EEEOT_OT0_, symObjAddr: 0x31B4, symBinAddr: 0x100004BA4, symSize: 0x3C }
  - { offsetInCU: 0xDF7C, offset: 0xDF7C, size: 0x8, addend: 0x0, symName: __ZNSt3__14pairIPKcPcEC2B8ue170006IS2_S3_LPv0EEEOT_OT0_, symObjAddr: 0x31F0, symBinAddr: 0x100004BE0, symSize: 0x34 }
  - { offsetInCU: 0xDFDA, offset: 0xDFDA, size: 0x8, addend: 0x0, symName: __ZNSt3__118__unwrap_iter_implIPKcLb1EE8__rewrapB8ue170006ES2_S2_, symObjAddr: 0x3260, symBinAddr: 0x100004C50, symSize: 0x48 }
  - { offsetInCU: 0xE00B, offset: 0xE00B, size: 0x8, addend: 0x0, symName: __ZNSt3__118__unwrap_iter_implIPcLb1EE8__rewrapB8ue170006ES1_S1_, symObjAddr: 0x32A8, symBinAddr: 0x100004C98, symSize: 0x48 }
  - { offsetInCU: 0xE03C, offset: 0xE03C, size: 0x8, addend: 0x0, symName: __ZNSt3__16vectorIbNS_9allocatorIbEEEC2B8ue170006Ev, symObjAddr: 0x33AC, symBinAddr: 0x100004D9C, symSize: 0x4C }
  - { offsetInCU: 0xE06D, offset: 0xE06D, size: 0x8, addend: 0x0, symName: __ZNSt3__117__compressed_pairImNS_9allocatorImEEEC1B8ue170006IiNS_18__default_init_tagEEEOT_OT0_, symObjAddr: 0x33F8, symBinAddr: 0x100004DE8, symSize: 0x3C }
  - { offsetInCU: 0xE0C5, offset: 0xE0C5, size: 0x8, addend: 0x0, symName: __ZNSt3__117__compressed_pairImNS_9allocatorImEEEC2B8ue170006IiNS_18__default_init_tagEEEOT_OT0_, symObjAddr: 0x3434, symBinAddr: 0x100004E24, symSize: 0x40 }
  - { offsetInCU: 0xE11D, offset: 0xE11D, size: 0x8, addend: 0x0, symName: __ZNSt3__122__compressed_pair_elemImLi0ELb0EEC2B8ue170006IivEEOT_, symObjAddr: 0x3474, symBinAddr: 0x100004E64, symSize: 0x24 }
  - { offsetInCU: 0xE15F, offset: 0xE15F, size: 0x8, addend: 0x0, symName: __ZNSt3__122__compressed_pair_elemINS_9allocatorImEELi1ELb1EEC2B8ue170006ENS_18__default_init_tagE, symObjAddr: 0x3498, symBinAddr: 0x100004E88, symSize: 0x2C }
  - { offsetInCU: 0xE193, offset: 0xE193, size: 0x8, addend: 0x0, symName: __ZNSt3__19allocatorImEC2B8ue170006Ev, symObjAddr: 0x34C4, symBinAddr: 0x100004EB4, symSize: 0x2C }
  - { offsetInCU: 0xE1BD, offset: 0xE1BD, size: 0x8, addend: 0x0, symName: __ZNSt3__116__non_trivial_ifILb1ENS_9allocatorImEEEC2B8ue170006Ev, symObjAddr: 0x34F0, symBinAddr: 0x100004EE0, symSize: 0x14 }
  - { offsetInCU: 0xE1E7, offset: 0xE1E7, size: 0x8, addend: 0x0, symName: __ZNSt3__16vectorIbNS_9allocatorIbEEED2B8ue170006Ev, symObjAddr: 0x3504, symBinAddr: 0x100004EF4, symSize: 0x44 }
  - { offsetInCU: 0xE211, offset: 0xE211, size: 0x8, addend: 0x0, symName: __ZNSt3__16vectorIbNS_9allocatorIbEEE16__destroy_vectorC1B8ue170006ERS3_, symObjAddr: 0x3548, symBinAddr: 0x100004F38, symSize: 0x34 }
  - { offsetInCU: 0xE24A, offset: 0xE24A, size: 0x8, addend: 0x0, symName: __ZNSt3__16vectorIbNS_9allocatorIbEEE16__destroy_vectorclB8ue170006Ev, symObjAddr: 0x357C, symBinAddr: 0x100004F6C, symSize: 0x7C }
  - { offsetInCU: 0xE270, offset: 0xE270, size: 0x8, addend: 0x0, symName: __ZNSt3__16vectorIbNS_9allocatorIbEEE16__destroy_vectorC2B8ue170006ERS3_, symObjAddr: 0x35F8, symBinAddr: 0x100004FE8, symSize: 0x20 }
  - { offsetInCU: 0xE2A9, offset: 0xE2A9, size: 0x8, addend: 0x0, symName: __ZNSt3__116allocator_traitsINS_9allocatorImEEE10deallocateB8ue170006ERS2_Pmm, symObjAddr: 0x3618, symBinAddr: 0x100005008, symSize: 0x34 }
  - { offsetInCU: 0xE2EB, offset: 0xE2EB, size: 0x8, addend: 0x0, symName: __ZNSt3__16vectorIbNS_9allocatorIbEEE7__allocB8ue170006Ev, symObjAddr: 0x364C, symBinAddr: 0x10000503C, symSize: 0x28 }
  - { offsetInCU: 0xE311, offset: 0xE311, size: 0x8, addend: 0x0, symName: __ZNSt3__16vectorIbNS_9allocatorIbEEE5__capB8ue170006Ev, symObjAddr: 0x3674, symBinAddr: 0x100005064, symSize: 0x28 }
  - { offsetInCU: 0xE337, offset: 0xE337, size: 0x8, addend: 0x0, symName: __ZNSt3__19allocatorImE10deallocateB8ue170006EPmm, symObjAddr: 0x369C, symBinAddr: 0x10000508C, symSize: 0x40 }
  - { offsetInCU: 0xE379, offset: 0xE379, size: 0x8, addend: 0x0, symName: __ZNSt3__117__compressed_pairImNS_9allocatorImEEE6secondB8ue170006Ev, symObjAddr: 0x37E4, symBinAddr: 0x1000051D4, symSize: 0x24 }
  - { offsetInCU: 0xE39F, offset: 0xE39F, size: 0x8, addend: 0x0, symName: __ZNSt3__122__compressed_pair_elemINS_9allocatorImEELi1ELb1EE5__getB8ue170006Ev, symObjAddr: 0x3808, symBinAddr: 0x1000051F8, symSize: 0x14 }
  - { offsetInCU: 0xE3C5, offset: 0xE3C5, size: 0x8, addend: 0x0, symName: __ZNSt3__117__compressed_pairImNS_9allocatorImEEE5firstB8ue170006Ev, symObjAddr: 0x381C, symBinAddr: 0x10000520C, symSize: 0x24 }
  - { offsetInCU: 0xE3EB, offset: 0xE3EB, size: 0x8, addend: 0x0, symName: __ZNSt3__122__compressed_pair_elemImLi0ELb0EE5__getB8ue170006Ev, symObjAddr: 0x3840, symBinAddr: 0x100005230, symSize: 0x14 }
  - { offsetInCU: 0xE411, offset: 0xE411, size: 0x8, addend: 0x0, symName: __ZNKSt3__15arrayINS0_IiLm7EEELm7EE4sizeB8ue170006Ev, symObjAddr: 0x3854, symBinAddr: 0x100005244, symSize: 0x14 }
  - { offsetInCU: 0xE437, offset: 0xE437, size: 0x8, addend: 0x0, symName: __ZNKSt3__15arrayIiLm7EE4sizeB8ue170006Ev, symObjAddr: 0x3868, symBinAddr: 0x100005258, symSize: 0x14 }
  - { offsetInCU: 0xE45D, offset: 0xE45D, size: 0x8, addend: 0x0, symName: __ZNKSt3__15arrayINS0_IiLm7EEELm7EE5beginB8ue170006Ev, symObjAddr: 0x38B4, symBinAddr: 0x1000052A4, symSize: 0x24 }
  - { offsetInCU: 0xE483, offset: 0xE483, size: 0x8, addend: 0x0, symName: __ZNKSt3__15arrayINS0_IiLm7EEELm7EE3endB8ue170006Ev, symObjAddr: 0x38D8, symBinAddr: 0x1000052C8, symSize: 0x28 }
  - { offsetInCU: 0xE4B8, offset: 0xE4B8, size: 0x8, addend: 0x0, symName: __ZNKSt3__110__equal_toclB8ue170006INS_5arrayIiLm7EEES3_EEbRKT_RKT0_, symObjAddr: 0x3A2C, symBinAddr: 0x10000541C, symSize: 0x34 }
  - { offsetInCU: 0xE50C, offset: 0xE50C, size: 0x8, addend: 0x0, symName: __ZNKSt3__15arrayIiLm7EE5beginB8ue170006Ev, symObjAddr: 0x3AEC, symBinAddr: 0x1000054DC, symSize: 0x24 }
  - { offsetInCU: 0xE532, offset: 0xE532, size: 0x8, addend: 0x0, symName: __ZNKSt3__15arrayIiLm7EE3endB8ue170006Ev, symObjAddr: 0x3B10, symBinAddr: 0x100005500, symSize: 0x28 }
  - { offsetInCU: 0xE55D, offset: 0xE55D, size: 0x8, addend: 0x0, symName: __ZNSt3__118__unwrap_iter_implIPKiLb1EE8__unwrapB8ue170006ES2_, symObjAddr: 0x3C50, symBinAddr: 0x100005640, symSize: 0x24 }
  - { offsetInCU: 0xE580, offset: 0xE580, size: 0x8, addend: 0x0, symName: __ZNKSt3__15arrayIiLm7EE4dataB8ue170006Ev, symObjAddr: 0x3C88, symBinAddr: 0x100005678, symSize: 0x14 }
  - { offsetInCU: 0xE5AB, offset: 0xE5AB, size: 0x8, addend: 0x0, symName: __ZNSt3__118__unwrap_iter_implIPKNS_5arrayIiLm7EEELb1EE8__unwrapB8ue170006ES4_, symObjAddr: 0x3C9C, symBinAddr: 0x10000568C, symSize: 0x24 }
  - { offsetInCU: 0xE5CE, offset: 0xE5CE, size: 0x8, addend: 0x0, symName: __ZNKSt3__15arrayINS0_IiLm7EEELm7EE4dataB8ue170006Ev, symObjAddr: 0x3CD4, symBinAddr: 0x1000056C4, symSize: 0x14 }
  - { offsetInCU: 0xE5F4, offset: 0xE5F4, size: 0x8, addend: 0x0, symName: __ZNKSt3__16vectorIbNS_9allocatorIbEEE8capacityB8ue170006Ev, symObjAddr: 0x3CE8, symBinAddr: 0x1000056D8, symSize: 0x2C }
  - { offsetInCU: 0xE61A, offset: 0xE61A, size: 0x8, addend: 0x0, symName: __ZNSt3__16vectorIbNS_9allocatorIbEEE7reserveEm, symObjAddr: 0x3D14, symBinAddr: 0x100005704, symSize: 0x118 }
  - { offsetInCU: 0xE666, offset: 0xE666, size: 0x8, addend: 0x0, symName: __ZNKSt3__16vectorIbNS_9allocatorIbEEE11__recommendB8ue170006Em, symObjAddr: 0x3E2C, symBinAddr: 0x10000581C, symSize: 0xCC }
  - { offsetInCU: 0xE6BB, offset: 0xE6BB, size: 0x8, addend: 0x0, symName: __ZNSt3__16vectorIbNS_9allocatorIbEEE4backB8ue170006Ev, symObjAddr: 0x3EF8, symBinAddr: 0x1000058E8, symSize: 0x3C }
  - { offsetInCU: 0xE6E1, offset: 0xE6E1, size: 0x8, addend: 0x0, symName: __ZNSt3__115__bit_referenceINS_6vectorIbNS_9allocatorIbEEEELb1EEaSB8ue170006Eb, symObjAddr: 0x3F34, symBinAddr: 0x100005924, symSize: 0x6C }
  - { offsetInCU: 0xE715, offset: 0xE715, size: 0x8, addend: 0x0, symName: __ZNSt3__16vectorIbNS_9allocatorIbEEE26__internal_cap_to_externalB8ue170006Em, symObjAddr: 0x3FA0, symBinAddr: 0x100005990, symSize: 0x18 }
  - { offsetInCU: 0xE739, offset: 0xE739, size: 0x8, addend: 0x0, symName: __ZNKSt3__16vectorIbNS_9allocatorIbEEE5__capB8ue170006Ev, symObjAddr: 0x3FB8, symBinAddr: 0x1000059A8, symSize: 0x28 }
  - { offsetInCU: 0xE75F, offset: 0xE75F, size: 0x8, addend: 0x0, symName: __ZNKSt3__117__compressed_pairImNS_9allocatorImEEE5firstB8ue170006Ev, symObjAddr: 0x3FE0, symBinAddr: 0x1000059D0, symSize: 0x24 }
  - { offsetInCU: 0xE785, offset: 0xE785, size: 0x8, addend: 0x0, symName: __ZNKSt3__122__compressed_pair_elemImLi0ELb0EE5__getB8ue170006Ev, symObjAddr: 0x4004, symBinAddr: 0x1000059F4, symSize: 0x14 }
  - { offsetInCU: 0xE7AB, offset: 0xE7AB, size: 0x8, addend: 0x0, symName: __ZNKSt3__16vectorIbNS_9allocatorIbEEE8max_sizeEv, symObjAddr: 0x4018, symBinAddr: 0x100005A08, symSize: 0x7C }
  - { offsetInCU: 0xE7F1, offset: 0xE7F1, size: 0x8, addend: 0x0, symName: __ZNKSt3__16vectorIbNS_9allocatorIbEEE20__throw_length_errorB8ue170006Ev, symObjAddr: 0x4094, symBinAddr: 0x100005A84, symSize: 0x1C }
  - { offsetInCU: 0xE817, offset: 0xE817, size: 0x8, addend: 0x0, symName: __ZNKSt3__16vectorIbNS_9allocatorIbEEE13get_allocatorB8ue170006Ev, symObjAddr: 0x40B0, symBinAddr: 0x100005AA0, symSize: 0x30 }
  - { offsetInCU: 0xE83D, offset: 0xE83D, size: 0x8, addend: 0x0, symName: __ZNSt3__16vectorIbNS_9allocatorIbEEEC1B8ue170006ERKS2_, symObjAddr: 0x40E0, symBinAddr: 0x100005AD0, symSize: 0x34 }
  - { offsetInCU: 0xE878, offset: 0xE878, size: 0x8, addend: 0x0, symName: __ZNSt3__16vectorIbNS_9allocatorIbEEE11__vallocateB8ue170006Em, symObjAddr: 0x4114, symBinAddr: 0x100005B04, symSize: 0xA0 }
  - { offsetInCU: 0xE8BC, offset: 0xE8BC, size: 0x8, addend: 0x0, symName: __ZNSt3__16vectorIbNS_9allocatorIbEEE18__construct_at_endINS_14__bit_iteratorIS3_Lb0ELm0EEES6_EEvT_T0_m, symObjAddr: 0x41B4, symBinAddr: 0x100005BA4, symSize: 0x12C }
  - { offsetInCU: 0xE934, offset: 0xE934, size: 0x8, addend: 0x0, symName: __ZNSt3__16vectorIbNS_9allocatorIbEEE5beginB8ue170006Ev, symObjAddr: 0x42E0, symBinAddr: 0x100005CD0, symSize: 0x30 }
  - { offsetInCU: 0xE95A, offset: 0xE95A, size: 0x8, addend: 0x0, symName: __ZNSt3__16vectorIbNS_9allocatorIbEEE3endB8ue170006Ev, symObjAddr: 0x4310, symBinAddr: 0x100005D00, symSize: 0x30 }
  - { offsetInCU: 0xE980, offset: 0xE980, size: 0x8, addend: 0x0, symName: __ZNSt3__16vectorIbNS_9allocatorIbEEE4swapERS3_, symObjAddr: 0x4340, symBinAddr: 0x100005D30, symSize: 0x84 }
  - { offsetInCU: 0xE9C1, offset: 0xE9C1, size: 0x8, addend: 0x0, symName: __ZNSt3__116allocator_traitsINS_9allocatorImEEE8max_sizeB8ue170006IS2_vEEmRKS2_, symObjAddr: 0x43C4, symBinAddr: 0x100005DB4, symSize: 0x24 }
  - { offsetInCU: 0xE9EF, offset: 0xE9EF, size: 0x8, addend: 0x0, symName: __ZNKSt3__16vectorIbNS_9allocatorIbEEE7__allocB8ue170006Ev, symObjAddr: 0x43E8, symBinAddr: 0x100005DD8, symSize: 0x28 }
  - { offsetInCU: 0xEA15, offset: 0xEA15, size: 0x8, addend: 0x0, symName: __ZNKSt3__19allocatorImE8max_sizeB8ue170006Ev, symObjAddr: 0x4410, symBinAddr: 0x100005E00, symSize: 0x14 }
  - { offsetInCU: 0xEA3B, offset: 0xEA3B, size: 0x8, addend: 0x0, symName: __ZNKSt3__117__compressed_pairImNS_9allocatorImEEE6secondB8ue170006Ev, symObjAddr: 0x4424, symBinAddr: 0x100005E14, symSize: 0x24 }
  - { offsetInCU: 0xEA61, offset: 0xEA61, size: 0x8, addend: 0x0, symName: __ZNKSt3__122__compressed_pair_elemINS_9allocatorImEELi1ELb1EE5__getB8ue170006Ev, symObjAddr: 0x4448, symBinAddr: 0x100005E38, symSize: 0x14 }
  - { offsetInCU: 0xEA87, offset: 0xEA87, size: 0x8, addend: 0x0, symName: __ZNSt3__19allocatorIbEC1B8ue170006ImEERKNS0_IT_EE, symObjAddr: 0x445C, symBinAddr: 0x100005E4C, symSize: 0x34 }
  - { offsetInCU: 0xEAC4, offset: 0xEAC4, size: 0x8, addend: 0x0, symName: __ZNSt3__19allocatorIbEC2B8ue170006ImEERKNS0_IT_EE, symObjAddr: 0x4490, symBinAddr: 0x100005E80, symSize: 0x30 }
  - { offsetInCU: 0xEB01, offset: 0xEB01, size: 0x8, addend: 0x0, symName: __ZNSt3__116__non_trivial_ifILb1ENS_9allocatorIbEEEC2B8ue170006Ev, symObjAddr: 0x44C0, symBinAddr: 0x100005EB0, symSize: 0x14 }
  - { offsetInCU: 0xEB2B, offset: 0xEB2B, size: 0x8, addend: 0x0, symName: __ZNSt3__16vectorIbNS_9allocatorIbEEEC2B8ue170006ERKS2_, symObjAddr: 0x44D4, symBinAddr: 0x100005EC4, symSize: 0x6C }
  - { offsetInCU: 0xEB6B, offset: 0xEB6B, size: 0x8, addend: 0x0, symName: __ZNSt3__19allocatorImEC1B8ue170006IbEERKNS0_IT_EE, symObjAddr: 0x4540, symBinAddr: 0x100005F30, symSize: 0x34 }
  - { offsetInCU: 0xEBAD, offset: 0xEBAD, size: 0x8, addend: 0x0, symName: __ZNSt3__117__compressed_pairImNS_9allocatorImEEEC1B8ue170006IiS2_EEOT_OT0_, symObjAddr: 0x4574, symBinAddr: 0x100005F64, symSize: 0x3C }
  - { offsetInCU: 0xEC05, offset: 0xEC05, size: 0x8, addend: 0x0, symName: __ZNSt3__19allocatorImEC2B8ue170006IbEERKNS0_IT_EE, symObjAddr: 0x45B0, symBinAddr: 0x100005FA0, symSize: 0x30 }
  - { offsetInCU: 0xEC42, offset: 0xEC42, size: 0x8, addend: 0x0, symName: __ZNSt3__117__compressed_pairImNS_9allocatorImEEEC2B8ue170006IiS2_EEOT_OT0_, symObjAddr: 0x45E0, symBinAddr: 0x100005FD0, symSize: 0x44 }
  - { offsetInCU: 0xEC9A, offset: 0xEC9A, size: 0x8, addend: 0x0, symName: __ZNSt3__122__compressed_pair_elemINS_9allocatorImEELi1ELb1EEC2B8ue170006IS2_vEEOT_, symObjAddr: 0x4624, symBinAddr: 0x100006014, symSize: 0x18 }
  - { offsetInCU: 0xECDC, offset: 0xECDC, size: 0x8, addend: 0x0, symName: __ZNSt3__16vectorIbNS_9allocatorIbEEE26__external_cap_to_internalB8ue170006Em, symObjAddr: 0x467C, symBinAddr: 0x10000606C, symSize: 0x24 }
  - { offsetInCU: 0xED00, offset: 0xED00, size: 0x8, addend: 0x0, symName: __ZNSt3__19allocatorImE8allocateB8ue170006Em, symObjAddr: 0x46A0, symBinAddr: 0x100006090, symSize: 0x58 }
  - { offsetInCU: 0xED34, offset: 0xED34, size: 0x8, addend: 0x0, symName: __ZNSt3__114__bit_iteratorINS_6vectorIbNS_9allocatorIbEEEELb0ELm0EEC1B8ue170006ERKS5_, symObjAddr: 0x4780, symBinAddr: 0x100006170, symSize: 0x34 }
  - { offsetInCU: 0xED6D, offset: 0xED6D, size: 0x8, addend: 0x0, symName: __ZNSt3__16vectorIbNS_9allocatorIbEEE11__make_iterB8ue170006Em, symObjAddr: 0x47B4, symBinAddr: 0x1000061A4, symSize: 0x64 }
  - { offsetInCU: 0xEDC5, offset: 0xEDC5, size: 0x8, addend: 0x0, symName: __ZNKSt3__111__copy_loopINS_17_ClassicAlgPolicyEEclB8ue170006INS_14__bit_iteratorINS_6vectorIbNS_9allocatorIbEEEELb0ELm0EEES9_S9_EENS_4pairIT_T1_EESB_T0_SC_, symObjAddr: 0x4A88, symBinAddr: 0x100006478, symSize: 0xB8 }
  - { offsetInCU: 0xEE33, offset: 0xEE33, size: 0x8, addend: 0x0, symName: __ZNKSt3__114__bit_iteratorINS_6vectorIbNS_9allocatorIbEEEELb0ELm0EEdeB8ue170006Ev, symObjAddr: 0x4CD8, symBinAddr: 0x1000066C8, symSize: 0x44 }
  - { offsetInCU: 0xEE59, offset: 0xEE59, size: 0x8, addend: 0x0, symName: __ZNSt3__115__bit_referenceINS_6vectorIbNS_9allocatorIbEEEELb1EEaSB8ue170006ERKS5_, symObjAddr: 0x4D1C, symBinAddr: 0x10000670C, symSize: 0x40 }
  - { offsetInCU: 0xEE8D, offset: 0xEE8D, size: 0x8, addend: 0x0, symName: __ZNSt3__114__bit_iteratorINS_6vectorIbNS_9allocatorIbEEEELb0ELm0EEppB8ue170006Ev, symObjAddr: 0x4D5C, symBinAddr: 0x10000674C, symSize: 0x5C }
  - { offsetInCU: 0xEEB3, offset: 0xEEB3, size: 0x8, addend: 0x0, symName: __ZNSt3__118__unwrap_iter_implINS_14__bit_iteratorINS_6vectorIbNS_9allocatorIbEEEELb0ELm0EEELb0EE8__unwrapB8ue170006ES6_, symObjAddr: 0x4E1C, symBinAddr: 0x10000680C, symSize: 0x38 }
  - { offsetInCU: 0xEEDC, offset: 0xEEDC, size: 0x8, addend: 0x0, symName: __ZNSt3__14pairINS_14__bit_iteratorINS_6vectorIbNS_9allocatorIbEEEELb0ELm0EEES6_EC1B8ue170006IS6_S6_LPv0EEEOT_OT0_, symObjAddr: 0x4E54, symBinAddr: 0x100006844, symSize: 0x3C }
  - { offsetInCU: 0xEF3A, offset: 0xEF3A, size: 0x8, addend: 0x0, symName: __ZNSt3__14pairINS_14__bit_iteratorINS_6vectorIbNS_9allocatorIbEEEELb0ELm0EEES6_EC2B8ue170006IS6_S6_LPv0EEEOT_OT0_, symObjAddr: 0x4E90, symBinAddr: 0x100006880, symSize: 0x48 }
  - { offsetInCU: 0xEF98, offset: 0xEF98, size: 0x8, addend: 0x0, symName: __ZNSt3__118__unwrap_iter_implINS_14__bit_iteratorINS_6vectorIbNS_9allocatorIbEEEELb0ELm0EEELb0EE8__rewrapB8ue170006ES6_S6_, symObjAddr: 0x4ED8, symBinAddr: 0x1000068C8, symSize: 0x3C }
  - { offsetInCU: 0xEFC7, offset: 0xEFC7, size: 0x8, addend: 0x0, symName: __ZNSt3__114__bit_iteratorINS_6vectorIbNS_9allocatorIbEEEELb0ELm0EEC2B8ue170006ERKS5_, symObjAddr: 0x4F14, symBinAddr: 0x100006904, symSize: 0x30 }
  - { offsetInCU: 0xF000, offset: 0xF000, size: 0x8, addend: 0x0, symName: __ZNSt3__114__bit_iteratorINS_6vectorIbNS_9allocatorIbEEEELb0ELm0EEC1B8ue170006EPmj, symObjAddr: 0x4F44, symBinAddr: 0x100006934, symSize: 0x3C }
  - { offsetInCU: 0xF048, offset: 0xF048, size: 0x8, addend: 0x0, symName: __ZNSt3__114__bit_iteratorINS_6vectorIbNS_9allocatorIbEEEELb0ELm0EEC2B8ue170006EPmj, symObjAddr: 0x4F80, symBinAddr: 0x100006970, symSize: 0x2C }
  - { offsetInCU: 0xF090, offset: 0xF090, size: 0x8, addend: 0x0, symName: __ZNSt3__16vectorIbNS_9allocatorIbEEE10__align_itB8ue170006Em, symObjAddr: 0x5064, symBinAddr: 0x100006A54, symSize: 0x1C }
  - { offsetInCU: 0xF0BE, offset: 0xF0BE, size: 0x8, addend: 0x0, symName: __ZNKSt3__16__lessIvvEclB8ue170006ImmEEbRKT_RKT0_, symObjAddr: 0x50D4, symBinAddr: 0x100006AC4, symSize: 0x34 }
  - { offsetInCU: 0xF112, offset: 0xF112, size: 0x8, addend: 0x0, symName: __ZNSt3__16vectorIbNS_9allocatorIbEEEC2ERKS3_, symObjAddr: 0x5208, symBinAddr: 0x100006BF8, symSize: 0xDC }
  - { offsetInCU: 0xF14D, offset: 0xF14D, size: 0x8, addend: 0x0, symName: __ZNSt3__116allocator_traitsINS_9allocatorImEEE37select_on_container_copy_constructionB8ue170006IS2_vvEES2_RKS2_, symObjAddr: 0x52E4, symBinAddr: 0x100006CD4, symSize: 0x10 }
  - { offsetInCU: 0xF17C, offset: 0xF17C, size: 0x8, addend: 0x0, symName: __ZNSt3__16vectorIbNS_9allocatorIbEEE18__construct_at_endINS_14__bit_iteratorIS3_Lb1ELm0EEES6_EEvT_T0_m, symObjAddr: 0x52F4, symBinAddr: 0x100006CE4, symSize: 0x124 }
  - { offsetInCU: 0xF1F2, offset: 0xF1F2, size: 0x8, addend: 0x0, symName: __ZNKSt3__16vectorIbNS_9allocatorIbEEE5beginB8ue170006Ev, symObjAddr: 0x5418, symBinAddr: 0x100006E08, symSize: 0x38 }
  - { offsetInCU: 0xF218, offset: 0xF218, size: 0x8, addend: 0x0, symName: __ZNKSt3__16vectorIbNS_9allocatorIbEEE3endB8ue170006Ev, symObjAddr: 0x5450, symBinAddr: 0x100006E40, symSize: 0x38 }
  - { offsetInCU: 0xF257, offset: 0xF257, size: 0x8, addend: 0x0, symName: __ZNKSt3__111__copy_loopINS_17_ClassicAlgPolicyEEclB8ue170006INS_14__bit_iteratorINS_6vectorIbNS_9allocatorIbEEEELb1ELm0EEES9_NS4_IS8_Lb0ELm0EEEEENS_4pairIT_T1_EESC_T0_SD_, symObjAddr: 0x5754, symBinAddr: 0x100007144, symSize: 0xC4 }
  - { offsetInCU: 0xF2E1, offset: 0xF2E1, size: 0x8, addend: 0x0, symName: __ZNSt3__14pairINS_14__bit_iteratorINS_6vectorIbNS_9allocatorIbEEEELb1ELm0EEES6_EC1B8ue170006IS6_S6_LPv0EEEOT_OT0_, symObjAddr: 0x5930, symBinAddr: 0x100007320, symSize: 0x3C }
  - { offsetInCU: 0xF33F, offset: 0xF33F, size: 0x8, addend: 0x0, symName: __ZNSt3__14pairINS_14__bit_iteratorINS_6vectorIbNS_9allocatorIbEEEELb1ELm0EEES6_EC2B8ue170006IS6_S6_LPv0EEEOT_OT0_, symObjAddr: 0x596C, symBinAddr: 0x10000735C, symSize: 0x34 }
  - { offsetInCU: 0xF39D, offset: 0xF39D, size: 0x8, addend: 0x0, symName: __ZNSt3__118__unwrap_iter_implINS_14__bit_iteratorINS_6vectorIbNS_9allocatorIbEEEELb1ELm0EEELb0EE8__unwrapB8ue170006ES6_, symObjAddr: 0x59A0, symBinAddr: 0x100007390, symSize: 0x24 }
  - { offsetInCU: 0xF3C0, offset: 0xF3C0, size: 0x8, addend: 0x0, symName: __ZNKSt3__114__bit_iteratorINS_6vectorIbNS_9allocatorIbEEEELb1ELm0EEdeB8ue170006Ev, symObjAddr: 0x59F8, symBinAddr: 0x1000073E8, symSize: 0x44 }
  - { offsetInCU: 0xF3E6, offset: 0xF3E6, size: 0x8, addend: 0x0, symName: __ZNKSt3__121__bit_const_referenceINS_6vectorIbNS_9allocatorIbEEEEEcvbB8ue170006Ev, symObjAddr: 0x5A3C, symBinAddr: 0x10000742C, symSize: 0x2C }
  - { offsetInCU: 0xF40C, offset: 0xF40C, size: 0x8, addend: 0x0, symName: __ZNSt3__114__bit_iteratorINS_6vectorIbNS_9allocatorIbEEEELb1ELm0EEppB8ue170006Ev, symObjAddr: 0x5A68, symBinAddr: 0x100007458, symSize: 0x5C }
  - { offsetInCU: 0xF432, offset: 0xF432, size: 0x8, addend: 0x0, symName: __ZNSt3__121__bit_const_referenceINS_6vectorIbNS_9allocatorIbEEEEEC1B8ue170006EPKmm, symObjAddr: 0x5B28, symBinAddr: 0x100007518, symSize: 0x3C }
  - { offsetInCU: 0xF478, offset: 0xF478, size: 0x8, addend: 0x0, symName: __ZNSt3__121__bit_const_referenceINS_6vectorIbNS_9allocatorIbEEEEEC2B8ue170006EPKmm, symObjAddr: 0x5B64, symBinAddr: 0x100007554, symSize: 0x2C }
  - { offsetInCU: 0xF4BE, offset: 0xF4BE, size: 0x8, addend: 0x0, symName: __ZNSt3__14pairINS_14__bit_iteratorINS_6vectorIbNS_9allocatorIbEEEELb1ELm0EEENS1_IS5_Lb0ELm0EEEEC1B8ue170006IS6_S7_LPv0EEEOT_OT0_, symObjAddr: 0x5B90, symBinAddr: 0x100007580, symSize: 0x3C }
  - { offsetInCU: 0xF51C, offset: 0xF51C, size: 0x8, addend: 0x0, symName: __ZNSt3__14pairINS_14__bit_iteratorINS_6vectorIbNS_9allocatorIbEEEELb1ELm0EEENS1_IS5_Lb0ELm0EEEEC2B8ue170006IS6_S7_LPv0EEEOT_OT0_, symObjAddr: 0x5BCC, symBinAddr: 0x1000075BC, symSize: 0x48 }
  - { offsetInCU: 0xF57A, offset: 0xF57A, size: 0x8, addend: 0x0, symName: __ZNSt3__118__unwrap_iter_implINS_14__bit_iteratorINS_6vectorIbNS_9allocatorIbEEEELb1ELm0EEELb0EE8__rewrapB8ue170006ES6_S6_, symObjAddr: 0x5C88, symBinAddr: 0x100007678, symSize: 0x2C }
  - { offsetInCU: 0xF5A7, offset: 0xF5A7, size: 0x8, addend: 0x0, symName: __ZNKSt3__16vectorIbNS_9allocatorIbEEE11__make_iterB8ue170006Em, symObjAddr: 0x5CB4, symBinAddr: 0x1000076A4, symSize: 0x5C }
  - { offsetInCU: 0xF5DC, offset: 0xF5DC, size: 0x8, addend: 0x0, symName: __ZNSt3__114__bit_iteratorINS_6vectorIbNS_9allocatorIbEEEELb1ELm0EEC1B8ue170006EPKmj, symObjAddr: 0x5D10, symBinAddr: 0x100007700, symSize: 0x3C }
  - { offsetInCU: 0xF624, offset: 0xF624, size: 0x8, addend: 0x0, symName: __ZNSt3__114__bit_iteratorINS_6vectorIbNS_9allocatorIbEEEELb1ELm0EEC2B8ue170006EPKmj, symObjAddr: 0x5D4C, symBinAddr: 0x10000773C, symSize: 0x2C }
  - { offsetInCU: 0xF66C, offset: 0xF66C, size: 0x8, addend: 0x0, symName: __ZNKSt3__15arrayINS0_IiLm7EEELm6EE4sizeB8ue170006Ev, symObjAddr: 0x5D78, symBinAddr: 0x100007768, symSize: 0x14 }
...
